
_usertests:     file format elf32-i386


Disassembly of section .text:

00000000 <main>:
  return randstate;
}

int
main(int argc, char *argv[])
{
       0:	8d 4c 24 04          	lea    0x4(%esp),%ecx
       4:	83 e4 f0             	and    $0xfffffff0,%esp
       7:	ff 71 fc             	pushl  -0x4(%ecx)
       a:	55                   	push   %ebp
       b:	89 e5                	mov    %esp,%ebp
       d:	51                   	push   %ecx
       e:	83 ec 0c             	sub    $0xc,%esp
  printf(1, "usertests starting\n");
      11:	68 1e 4d 00 00       	push   $0x4d1e
      16:	6a 01                	push   $0x1
      18:	e8 f3 39 00 00       	call   3a10 <printf>

  if(open("usertests.ran", 0) >= 0){
      1d:	5a                   	pop    %edx
      1e:	59                   	pop    %ecx
      1f:	6a 00                	push   $0x0
      21:	68 32 4d 00 00       	push   $0x4d32
      26:	e8 d7 38 00 00       	call   3902 <open>
      2b:	83 c4 10             	add    $0x10,%esp
      2e:	85 c0                	test   %eax,%eax
      30:	78 14                	js     46 <main+0x46>
    printf(1, "already ran user tests -- rebuild fs.img\n");
      32:	83 ec 08             	sub    $0x8,%esp
      35:	68 9c 54 00 00       	push   $0x549c
      3a:	6a 01                	push   $0x1
      3c:	e8 cf 39 00 00       	call   3a10 <printf>
    exit();
      41:	e8 7c 38 00 00       	call   38c2 <exit>
  }
  close(open("usertests.ran", O_CREATE));
      46:	50                   	push   %eax
      47:	50                   	push   %eax
      48:	68 00 02 00 00       	push   $0x200
      4d:	68 32 4d 00 00       	push   $0x4d32
      52:	e8 ab 38 00 00       	call   3902 <open>
      57:	89 04 24             	mov    %eax,(%esp)
      5a:	e8 8b 38 00 00       	call   38ea <close>

  argptest();
      5f:	e8 8c 35 00 00       	call   35f0 <argptest>
  createdelete();
      64:	e8 97 11 00 00       	call   1200 <createdelete>
  linkunlink();
      69:	e8 52 1a 00 00       	call   1ac0 <linkunlink>
  concreate();
      6e:	e8 3d 17 00 00       	call   17b0 <concreate>
  fourfiles();
      73:	e8 98 0f 00 00       	call   1010 <fourfiles>
  sharedfd();
      78:	e8 d3 0d 00 00       	call   e50 <sharedfd>

  bigargtest();
      7d:	e8 0e 32 00 00       	call   3290 <bigargtest>
  bigwrite();
      82:	e8 59 23 00 00       	call   23e0 <bigwrite>
  bigargtest();
      87:	e8 04 32 00 00       	call   3290 <bigargtest>
  bsstest();
      8c:	e8 7f 31 00 00       	call   3210 <bsstest>
  sbrktest();
      91:	e8 9a 2c 00 00       	call   2d30 <sbrktest>
  validatetest();
      96:	e8 c5 30 00 00       	call   3160 <validatetest>

  opentest();
      9b:	e8 50 03 00 00       	call   3f0 <opentest>
  writetest();
      a0:	e8 db 03 00 00       	call   480 <writetest>
  writetest1();
      a5:	e8 b6 05 00 00       	call   660 <writetest1>
  createtest();
      aa:	e8 81 07 00 00       	call   830 <createtest>

  openiputtest();
      af:	e8 3c 02 00 00       	call   2f0 <openiputtest>
  exitiputtest();
      b4:	e8 47 01 00 00       	call   200 <exitiputtest>
  iputtest();
      b9:	e8 62 00 00 00       	call   120 <iputtest>

  mem();
      be:	e8 bd 0c 00 00       	call   d80 <mem>
  pipe1();
      c3:	e8 48 09 00 00       	call   a10 <pipe1>
  preempt();
      c8:	e8 e3 0a 00 00       	call   bb0 <preempt>
  exitwait();
      cd:	e8 1e 0c 00 00       	call   cf0 <exitwait>

  rmdot();
      d2:	e8 f9 26 00 00       	call   27d0 <rmdot>
  fourteen();
      d7:	e8 b4 25 00 00       	call   2690 <fourteen>
  bigfile();
      dc:	e8 df 23 00 00       	call   24c0 <bigfile>
  subdir();
      e1:	e8 1a 1c 00 00       	call   1d00 <subdir>
  linktest();
      e6:	e8 b5 14 00 00       	call   15a0 <linktest>
  unlinkread();
      eb:	e8 20 13 00 00       	call   1410 <unlinkread>
  dirfile();
      f0:	e8 5b 28 00 00       	call   2950 <dirfile>
  iref();
      f5:	e8 56 2a 00 00       	call   2b50 <iref>
  forktest();
      fa:	e8 71 2b 00 00       	call   2c70 <forktest>
  bigdir(); // slow
      ff:	e8 cc 1a 00 00       	call   1bd0 <bigdir>

  uio();
     104:	e8 77 34 00 00       	call   3580 <uio>

  exectest();
     109:	e8 b2 08 00 00       	call   9c0 <exectest>

  exit();
     10e:	e8 af 37 00 00       	call   38c2 <exit>
     113:	66 90                	xchg   %ax,%ax
     115:	66 90                	xchg   %ax,%ax
     117:	66 90                	xchg   %ax,%ax
     119:	66 90                	xchg   %ax,%ax
     11b:	66 90                	xchg   %ax,%ax
     11d:	66 90                	xchg   %ax,%ax
     11f:	90                   	nop

00000120 <iputtest>:
{
     120:	55                   	push   %ebp
     121:	89 e5                	mov    %esp,%ebp
     123:	83 ec 10             	sub    $0x10,%esp
  printf(stdout, "iput test\n");
     126:	68 c4 3d 00 00       	push   $0x3dc4
     12b:	ff 35 c8 5d 00 00    	pushl  0x5dc8
     131:	e8 da 38 00 00       	call   3a10 <printf>
  if(mkdir("iputdir") < 0){
     136:	c7 04 24 57 3d 00 00 	movl   $0x3d57,(%esp)
     13d:	e8 e8 37 00 00       	call   392a <mkdir>
     142:	83 c4 10             	add    $0x10,%esp
     145:	85 c0                	test   %eax,%eax
     147:	78 58                	js     1a1 <iputtest+0x81>
  if(chdir("iputdir") < 0){
     149:	83 ec 0c             	sub    $0xc,%esp
     14c:	68 57 3d 00 00       	push   $0x3d57
     151:	e8 dc 37 00 00       	call   3932 <chdir>
     156:	83 c4 10             	add    $0x10,%esp
     159:	85 c0                	test   %eax,%eax
     15b:	0f 88 85 00 00 00    	js     1e6 <iputtest+0xc6>
  if(unlink("../iputdir") < 0){
     161:	83 ec 0c             	sub    $0xc,%esp
     164:	68 54 3d 00 00       	push   $0x3d54
     169:	e8 a4 37 00 00       	call   3912 <unlink>
     16e:	83 c4 10             	add    $0x10,%esp
     171:	85 c0                	test   %eax,%eax
     173:	78 5a                	js     1cf <iputtest+0xaf>
  if(chdir("/") < 0){
     175:	83 ec 0c             	sub    $0xc,%esp
     178:	68 79 3d 00 00       	push   $0x3d79
     17d:	e8 b0 37 00 00       	call   3932 <chdir>
     182:	83 c4 10             	add    $0x10,%esp
     185:	85 c0                	test   %eax,%eax
     187:	78 2f                	js     1b8 <iputtest+0x98>
  printf(stdout, "iput test ok\n");
     189:	83 ec 08             	sub    $0x8,%esp
     18c:	68 fc 3d 00 00       	push   $0x3dfc
     191:	ff 35 c8 5d 00 00    	pushl  0x5dc8
     197:	e8 74 38 00 00       	call   3a10 <printf>
}
     19c:	83 c4 10             	add    $0x10,%esp
     19f:	c9                   	leave  
     1a0:	c3                   	ret    
    printf(stdout, "mkdir failed\n");
     1a1:	50                   	push   %eax
     1a2:	50                   	push   %eax
     1a3:	68 30 3d 00 00       	push   $0x3d30
     1a8:	ff 35 c8 5d 00 00    	pushl  0x5dc8
     1ae:	e8 5d 38 00 00       	call   3a10 <printf>
    exit();
     1b3:	e8 0a 37 00 00       	call   38c2 <exit>
    printf(stdout, "chdir / failed\n");
     1b8:	50                   	push   %eax
     1b9:	50                   	push   %eax
     1ba:	68 7b 3d 00 00       	push   $0x3d7b
     1bf:	ff 35 c8 5d 00 00    	pushl  0x5dc8
     1c5:	e8 46 38 00 00       	call   3a10 <printf>
    exit();
     1ca:	e8 f3 36 00 00       	call   38c2 <exit>
    printf(stdout, "unlink ../iputdir failed\n");
     1cf:	52                   	push   %edx
     1d0:	52                   	push   %edx
     1d1:	68 5f 3d 00 00       	push   $0x3d5f
     1d6:	ff 35 c8 5d 00 00    	pushl  0x5dc8
     1dc:	e8 2f 38 00 00       	call   3a10 <printf>
    exit();
     1e1:	e8 dc 36 00 00       	call   38c2 <exit>
    printf(stdout, "chdir iputdir failed\n");
     1e6:	51                   	push   %ecx
     1e7:	51                   	push   %ecx
     1e8:	68 3e 3d 00 00       	push   $0x3d3e
     1ed:	ff 35 c8 5d 00 00    	pushl  0x5dc8
     1f3:	e8 18 38 00 00       	call   3a10 <printf>
    exit();
     1f8:	e8 c5 36 00 00       	call   38c2 <exit>
     1fd:	8d 76 00             	lea    0x0(%esi),%esi

00000200 <exitiputtest>:
{
     200:	55                   	push   %ebp
     201:	89 e5                	mov    %esp,%ebp
     203:	83 ec 10             	sub    $0x10,%esp
  printf(stdout, "exitiput test\n");
     206:	68 8b 3d 00 00       	push   $0x3d8b
     20b:	ff 35 c8 5d 00 00    	pushl  0x5dc8
     211:	e8 fa 37 00 00       	call   3a10 <printf>
  pid = fork();
     216:	e8 9f 36 00 00       	call   38ba <fork>
  if(pid < 0){
     21b:	83 c4 10             	add    $0x10,%esp
     21e:	85 c0                	test   %eax,%eax
     220:	0f 88 82 00 00 00    	js     2a8 <exitiputtest+0xa8>
  if(pid == 0){
     226:	75 48                	jne    270 <exitiputtest+0x70>
    if(mkdir("iputdir") < 0){
     228:	83 ec 0c             	sub    $0xc,%esp
     22b:	68 57 3d 00 00       	push   $0x3d57
     230:	e8 f5 36 00 00       	call   392a <mkdir>
     235:	83 c4 10             	add    $0x10,%esp
     238:	85 c0                	test   %eax,%eax
     23a:	0f 88 96 00 00 00    	js     2d6 <exitiputtest+0xd6>
    if(chdir("iputdir") < 0){
     240:	83 ec 0c             	sub    $0xc,%esp
     243:	68 57 3d 00 00       	push   $0x3d57
     248:	e8 e5 36 00 00       	call   3932 <chdir>
     24d:	83 c4 10             	add    $0x10,%esp
     250:	85 c0                	test   %eax,%eax
     252:	78 6b                	js     2bf <exitiputtest+0xbf>
    if(unlink("../iputdir") < 0){
     254:	83 ec 0c             	sub    $0xc,%esp
     257:	68 54 3d 00 00       	push   $0x3d54
     25c:	e8 b1 36 00 00       	call   3912 <unlink>
     261:	83 c4 10             	add    $0x10,%esp
     264:	85 c0                	test   %eax,%eax
     266:	78 28                	js     290 <exitiputtest+0x90>
    exit();
     268:	e8 55 36 00 00       	call   38c2 <exit>
     26d:	8d 76 00             	lea    0x0(%esi),%esi
  wait();
     270:	e8 55 36 00 00       	call   38ca <wait>
  printf(stdout, "exitiput test ok\n");
     275:	83 ec 08             	sub    $0x8,%esp
     278:	68 ae 3d 00 00       	push   $0x3dae
     27d:	ff 35 c8 5d 00 00    	pushl  0x5dc8
     283:	e8 88 37 00 00       	call   3a10 <printf>
}
     288:	83 c4 10             	add    $0x10,%esp
     28b:	c9                   	leave  
     28c:	c3                   	ret    
     28d:	8d 76 00             	lea    0x0(%esi),%esi
      printf(stdout, "unlink ../iputdir failed\n");
     290:	83 ec 08             	sub    $0x8,%esp
     293:	68 5f 3d 00 00       	push   $0x3d5f
     298:	ff 35 c8 5d 00 00    	pushl  0x5dc8
     29e:	e8 6d 37 00 00       	call   3a10 <printf>
      exit();
     2a3:	e8 1a 36 00 00       	call   38c2 <exit>
    printf(stdout, "fork failed\n");
     2a8:	51                   	push   %ecx
     2a9:	51                   	push   %ecx
     2aa:	68 71 4c 00 00       	push   $0x4c71
     2af:	ff 35 c8 5d 00 00    	pushl  0x5dc8
     2b5:	e8 56 37 00 00       	call   3a10 <printf>
    exit();
     2ba:	e8 03 36 00 00       	call   38c2 <exit>
      printf(stdout, "child chdir failed\n");
     2bf:	50                   	push   %eax
     2c0:	50                   	push   %eax
     2c1:	68 9a 3d 00 00       	push   $0x3d9a
     2c6:	ff 35 c8 5d 00 00    	pushl  0x5dc8
     2cc:	e8 3f 37 00 00       	call   3a10 <printf>
      exit();
     2d1:	e8 ec 35 00 00       	call   38c2 <exit>
      printf(stdout, "mkdir failed\n");
     2d6:	52                   	push   %edx
     2d7:	52                   	push   %edx
     2d8:	68 30 3d 00 00       	push   $0x3d30
     2dd:	ff 35 c8 5d 00 00    	pushl  0x5dc8
     2e3:	e8 28 37 00 00       	call   3a10 <printf>
      exit();
     2e8:	e8 d5 35 00 00       	call   38c2 <exit>
     2ed:	8d 76 00             	lea    0x0(%esi),%esi

000002f0 <openiputtest>:
{
     2f0:	55                   	push   %ebp
     2f1:	89 e5                	mov    %esp,%ebp
     2f3:	83 ec 10             	sub    $0x10,%esp
  printf(stdout, "openiput test\n");
     2f6:	68 c0 3d 00 00       	push   $0x3dc0
     2fb:	ff 35 c8 5d 00 00    	pushl  0x5dc8
     301:	e8 0a 37 00 00       	call   3a10 <printf>
  if(mkdir("oidir") < 0){
     306:	c7 04 24 cf 3d 00 00 	movl   $0x3dcf,(%esp)
     30d:	e8 18 36 00 00       	call   392a <mkdir>
     312:	83 c4 10             	add    $0x10,%esp
     315:	85 c0                	test   %eax,%eax
     317:	0f 88 88 00 00 00    	js     3a5 <openiputtest+0xb5>
  pid = fork();
     31d:	e8 98 35 00 00       	call   38ba <fork>
  if(pid < 0){
     322:	85 c0                	test   %eax,%eax
     324:	0f 88 92 00 00 00    	js     3bc <openiputtest+0xcc>
  if(pid == 0){
     32a:	75 34                	jne    360 <openiputtest+0x70>
    int fd = open("oidir", O_RDWR);
     32c:	83 ec 08             	sub    $0x8,%esp
     32f:	6a 02                	push   $0x2
     331:	68 cf 3d 00 00       	push   $0x3dcf
     336:	e8 c7 35 00 00       	call   3902 <open>
    if(fd >= 0){
     33b:	83 c4 10             	add    $0x10,%esp
     33e:	85 c0                	test   %eax,%eax
     340:	78 5e                	js     3a0 <openiputtest+0xb0>
      printf(stdout, "open directory for write succeeded\n");
     342:	83 ec 08             	sub    $0x8,%esp
     345:	68 54 4d 00 00       	push   $0x4d54
     34a:	ff 35 c8 5d 00 00    	pushl  0x5dc8
     350:	e8 bb 36 00 00       	call   3a10 <printf>
      exit();
     355:	e8 68 35 00 00       	call   38c2 <exit>
     35a:	8d b6 00 00 00 00    	lea    0x0(%esi),%esi
  sleep(1);
     360:	83 ec 0c             	sub    $0xc,%esp
     363:	6a 01                	push   $0x1
     365:	e8 e8 35 00 00       	call   3952 <sleep>
  if(unlink("oidir") != 0){
     36a:	c7 04 24 cf 3d 00 00 	movl   $0x3dcf,(%esp)
     371:	e8 9c 35 00 00       	call   3912 <unlink>
     376:	83 c4 10             	add    $0x10,%esp
     379:	85 c0                	test   %eax,%eax
     37b:	75 56                	jne    3d3 <openiputtest+0xe3>
  wait();
     37d:	e8 48 35 00 00       	call   38ca <wait>
  printf(stdout, "openiput test ok\n");
     382:	83 ec 08             	sub    $0x8,%esp
     385:	68 f8 3d 00 00       	push   $0x3df8
     38a:	ff 35 c8 5d 00 00    	pushl  0x5dc8
     390:	e8 7b 36 00 00       	call   3a10 <printf>
     395:	83 c4 10             	add    $0x10,%esp
}
     398:	c9                   	leave  
     399:	c3                   	ret    
     39a:	8d b6 00 00 00 00    	lea    0x0(%esi),%esi
    exit();
     3a0:	e8 1d 35 00 00       	call   38c2 <exit>
    printf(stdout, "mkdir oidir failed\n");
     3a5:	51                   	push   %ecx
     3a6:	51                   	push   %ecx
     3a7:	68 d5 3d 00 00       	push   $0x3dd5
     3ac:	ff 35 c8 5d 00 00    	pushl  0x5dc8
     3b2:	e8 59 36 00 00       	call   3a10 <printf>
    exit();
     3b7:	e8 06 35 00 00       	call   38c2 <exit>
    printf(stdout, "fork failed\n");
     3bc:	52                   	push   %edx
     3bd:	52                   	push   %edx
     3be:	68 71 4c 00 00       	push   $0x4c71
     3c3:	ff 35 c8 5d 00 00    	pushl  0x5dc8
     3c9:	e8 42 36 00 00       	call   3a10 <printf>
    exit();
     3ce:	e8 ef 34 00 00       	call   38c2 <exit>
    printf(stdout, "unlink failed\n");
     3d3:	50                   	push   %eax
     3d4:	50                   	push   %eax
     3d5:	68 e9 3d 00 00       	push   $0x3de9
     3da:	ff 35 c8 5d 00 00    	pushl  0x5dc8
     3e0:	e8 2b 36 00 00       	call   3a10 <printf>
    exit();
     3e5:	e8 d8 34 00 00       	call   38c2 <exit>
     3ea:	8d b6 00 00 00 00    	lea    0x0(%esi),%esi

000003f0 <opentest>:
{
     3f0:	55                   	push   %ebp
     3f1:	89 e5                	mov    %esp,%ebp
     3f3:	83 ec 10             	sub    $0x10,%esp
  printf(stdout, "open test\n");
     3f6:	68 0a 3e 00 00       	push   $0x3e0a
     3fb:	ff 35 c8 5d 00 00    	pushl  0x5dc8
     401:	e8 0a 36 00 00       	call   3a10 <printf>
  fd = open("echo", 0);
     406:	58                   	pop    %eax
     407:	5a                   	pop    %edx
     408:	6a 00                	push   $0x0
     40a:	68 15 3e 00 00       	push   $0x3e15
     40f:	e8 ee 34 00 00       	call   3902 <open>
  if(fd < 0){
     414:	83 c4 10             	add    $0x10,%esp
     417:	85 c0                	test   %eax,%eax
     419:	78 36                	js     451 <opentest+0x61>
  close(fd);
     41b:	83 ec 0c             	sub    $0xc,%esp
     41e:	50                   	push   %eax
     41f:	e8 c6 34 00 00       	call   38ea <close>
  fd = open("doesnotexist", 0);
     424:	5a                   	pop    %edx
     425:	59                   	pop    %ecx
     426:	6a 00                	push   $0x0
     428:	68 2d 3e 00 00       	push   $0x3e2d
     42d:	e8 d0 34 00 00       	call   3902 <open>
  if(fd >= 0){
     432:	83 c4 10             	add    $0x10,%esp
     435:	85 c0                	test   %eax,%eax
     437:	79 2f                	jns    468 <opentest+0x78>
  printf(stdout, "open test ok\n");
     439:	83 ec 08             	sub    $0x8,%esp
     43c:	68 58 3e 00 00       	push   $0x3e58
     441:	ff 35 c8 5d 00 00    	pushl  0x5dc8
     447:	e8 c4 35 00 00       	call   3a10 <printf>
}
     44c:	83 c4 10             	add    $0x10,%esp
     44f:	c9                   	leave  
     450:	c3                   	ret    
    printf(stdout, "open echo failed!\n");
     451:	50                   	push   %eax
     452:	50                   	push   %eax
     453:	68 1a 3e 00 00       	push   $0x3e1a
     458:	ff 35 c8 5d 00 00    	pushl  0x5dc8
     45e:	e8 ad 35 00 00       	call   3a10 <printf>
    exit();
     463:	e8 5a 34 00 00       	call   38c2 <exit>
    printf(stdout, "open doesnotexist succeeded!\n");
     468:	50                   	push   %eax
     469:	50                   	push   %eax
     46a:	68 3a 3e 00 00       	push   $0x3e3a
     46f:	ff 35 c8 5d 00 00    	pushl  0x5dc8
     475:	e8 96 35 00 00       	call   3a10 <printf>
    exit();
     47a:	e8 43 34 00 00       	call   38c2 <exit>
     47f:	90                   	nop

00000480 <writetest>:
{
     480:	55                   	push   %ebp
     481:	89 e5                	mov    %esp,%ebp
     483:	56                   	push   %esi
     484:	53                   	push   %ebx
  printf(stdout, "small file test\n");
     485:	83 ec 08             	sub    $0x8,%esp
     488:	68 66 3e 00 00       	push   $0x3e66
     48d:	ff 35 c8 5d 00 00    	pushl  0x5dc8
     493:	e8 78 35 00 00       	call   3a10 <printf>
  fd = open("small", O_CREATE|O_RDWR);
     498:	59                   	pop    %ecx
     499:	5b                   	pop    %ebx
     49a:	68 02 02 00 00       	push   $0x202
     49f:	68 77 3e 00 00       	push   $0x3e77
     4a4:	e8 59 34 00 00       	call   3902 <open>
  if(fd >= 0){
     4a9:	83 c4 10             	add    $0x10,%esp
     4ac:	85 c0                	test   %eax,%eax
     4ae:	0f 88 8b 01 00 00    	js     63f <writetest+0x1bf>
    printf(stdout, "creat small succeeded; ok\n");
     4b4:	83 ec 08             	sub    $0x8,%esp
     4b7:	89 c6                	mov    %eax,%esi
  for(i = 0; i < 100; i++){
     4b9:	31 db                	xor    %ebx,%ebx
    printf(stdout, "creat small succeeded; ok\n");
     4bb:	68 7d 3e 00 00       	push   $0x3e7d
     4c0:	ff 35 c8 5d 00 00    	pushl  0x5dc8
     4c6:	e8 45 35 00 00       	call   3a10 <printf>
     4cb:	83 c4 10             	add    $0x10,%esp
     4ce:	66 90                	xchg   %ax,%ax
    if(write(fd, "aaaaaaaaaa", 10) != 10){
     4d0:	83 ec 04             	sub    $0x4,%esp
     4d3:	6a 0a                	push   $0xa
     4d5:	68 b4 3e 00 00       	push   $0x3eb4
     4da:	56                   	push   %esi
     4db:	e8 02 34 00 00       	call   38e2 <write>
     4e0:	83 c4 10             	add    $0x10,%esp
     4e3:	83 f8 0a             	cmp    $0xa,%eax
     4e6:	0f 85 d9 00 00 00    	jne    5c5 <writetest+0x145>
    if(write(fd, "bbbbbbbbbb", 10) != 10){
     4ec:	83 ec 04             	sub    $0x4,%esp
     4ef:	6a 0a                	push   $0xa
     4f1:	68 bf 3e 00 00       	push   $0x3ebf
     4f6:	56                   	push   %esi
     4f7:	e8 e6 33 00 00       	call   38e2 <write>
     4fc:	83 c4 10             	add    $0x10,%esp
     4ff:	83 f8 0a             	cmp    $0xa,%eax
     502:	0f 85 d6 00 00 00    	jne    5de <writetest+0x15e>
  for(i = 0; i < 100; i++){
     508:	83 c3 01             	add    $0x1,%ebx
     50b:	83 fb 64             	cmp    $0x64,%ebx
     50e:	75 c0                	jne    4d0 <writetest+0x50>
  printf(stdout, "writes ok\n");
     510:	83 ec 08             	sub    $0x8,%esp
     513:	68 ca 3e 00 00       	push   $0x3eca
     518:	ff 35 c8 5d 00 00    	pushl  0x5dc8
     51e:	e8 ed 34 00 00       	call   3a10 <printf>
  close(fd);
     523:	89 34 24             	mov    %esi,(%esp)
     526:	e8 bf 33 00 00       	call   38ea <close>
  fd = open("small", O_RDONLY);
     52b:	58                   	pop    %eax
     52c:	5a                   	pop    %edx
     52d:	6a 00                	push   $0x0
     52f:	68 77 3e 00 00       	push   $0x3e77
     534:	e8 c9 33 00 00       	call   3902 <open>
  if(fd >= 0){
     539:	83 c4 10             	add    $0x10,%esp
     53c:	85 c0                	test   %eax,%eax
  fd = open("small", O_RDONLY);
     53e:	89 c3                	mov    %eax,%ebx
  if(fd >= 0){
     540:	0f 88 b1 00 00 00    	js     5f7 <writetest+0x177>
    printf(stdout, "open small succeeded ok\n");
     546:	83 ec 08             	sub    $0x8,%esp
     549:	68 d5 3e 00 00       	push   $0x3ed5
     54e:	ff 35 c8 5d 00 00    	pushl  0x5dc8
     554:	e8 b7 34 00 00       	call   3a10 <printf>
  i = read(fd, buf, 2000);
     559:	83 c4 0c             	add    $0xc,%esp
     55c:	68 d0 07 00 00       	push   $0x7d0
     561:	68 a0 85 00 00       	push   $0x85a0
     566:	53                   	push   %ebx
     567:	e8 6e 33 00 00       	call   38da <read>
  if(i == 2000){
     56c:	83 c4 10             	add    $0x10,%esp
     56f:	3d d0 07 00 00       	cmp    $0x7d0,%eax
     574:	0f 85 95 00 00 00    	jne    60f <writetest+0x18f>
    printf(stdout, "read succeeded ok\n");
     57a:	83 ec 08             	sub    $0x8,%esp
     57d:	68 09 3f 00 00       	push   $0x3f09
     582:	ff 35 c8 5d 00 00    	pushl  0x5dc8
     588:	e8 83 34 00 00       	call   3a10 <printf>
  close(fd);
     58d:	89 1c 24             	mov    %ebx,(%esp)
     590:	e8 55 33 00 00       	call   38ea <close>
  if(unlink("small") < 0){
     595:	c7 04 24 77 3e 00 00 	movl   $0x3e77,(%esp)
     59c:	e8 71 33 00 00       	call   3912 <unlink>
     5a1:	83 c4 10             	add    $0x10,%esp
     5a4:	85 c0                	test   %eax,%eax
     5a6:	78 7f                	js     627 <writetest+0x1a7>
  printf(stdout, "small file test ok\n");
     5a8:	83 ec 08             	sub    $0x8,%esp
     5ab:	68 31 3f 00 00       	push   $0x3f31
     5b0:	ff 35 c8 5d 00 00    	pushl  0x5dc8
     5b6:	e8 55 34 00 00       	call   3a10 <printf>
}
     5bb:	83 c4 10             	add    $0x10,%esp
     5be:	8d 65 f8             	lea    -0x8(%ebp),%esp
     5c1:	5b                   	pop    %ebx
     5c2:	5e                   	pop    %esi
     5c3:	5d                   	pop    %ebp
     5c4:	c3                   	ret    
      printf(stdout, "error: write aa %d new file failed\n", i);
     5c5:	83 ec 04             	sub    $0x4,%esp
     5c8:	53                   	push   %ebx
     5c9:	68 78 4d 00 00       	push   $0x4d78
     5ce:	ff 35 c8 5d 00 00    	pushl  0x5dc8
     5d4:	e8 37 34 00 00       	call   3a10 <printf>
      exit();
     5d9:	e8 e4 32 00 00       	call   38c2 <exit>
      printf(stdout, "error: write bb %d new file failed\n", i);
     5de:	83 ec 04             	sub    $0x4,%esp
     5e1:	53                   	push   %ebx
     5e2:	68 9c 4d 00 00       	push   $0x4d9c
     5e7:	ff 35 c8 5d 00 00    	pushl  0x5dc8
     5ed:	e8 1e 34 00 00       	call   3a10 <printf>
      exit();
     5f2:	e8 cb 32 00 00       	call   38c2 <exit>
    printf(stdout, "error: open small failed!\n");
     5f7:	83 ec 08             	sub    $0x8,%esp
     5fa:	68 ee 3e 00 00       	push   $0x3eee
     5ff:	ff 35 c8 5d 00 00    	pushl  0x5dc8
     605:	e8 06 34 00 00       	call   3a10 <printf>
    exit();
     60a:	e8 b3 32 00 00       	call   38c2 <exit>
    printf(stdout, "read failed\n");
     60f:	83 ec 08             	sub    $0x8,%esp
     612:	68 35 42 00 00       	push   $0x4235
     617:	ff 35 c8 5d 00 00    	pushl  0x5dc8
     61d:	e8 ee 33 00 00       	call   3a10 <printf>
    exit();
     622:	e8 9b 32 00 00       	call   38c2 <exit>
    printf(stdout, "unlink small failed\n");
     627:	83 ec 08             	sub    $0x8,%esp
     62a:	68 1c 3f 00 00       	push   $0x3f1c
     62f:	ff 35 c8 5d 00 00    	pushl  0x5dc8
     635:	e8 d6 33 00 00       	call   3a10 <printf>
    exit();
     63a:	e8 83 32 00 00       	call   38c2 <exit>
    printf(stdout, "error: creat small failed!\n");
     63f:	83 ec 08             	sub    $0x8,%esp
     642:	68 98 3e 00 00       	push   $0x3e98
     647:	ff 35 c8 5d 00 00    	pushl  0x5dc8
     64d:	e8 be 33 00 00       	call   3a10 <printf>
    exit();
     652:	e8 6b 32 00 00       	call   38c2 <exit>
     657:	89 f6                	mov    %esi,%esi
     659:	8d bc 27 00 00 00 00 	lea    0x0(%edi,%eiz,1),%edi

00000660 <writetest1>:
{
     660:	55                   	push   %ebp
     661:	89 e5                	mov    %esp,%ebp
     663:	56                   	push   %esi
     664:	53                   	push   %ebx
  printf(stdout, "big files test\n");
     665:	83 ec 08             	sub    $0x8,%esp
     668:	68 45 3f 00 00       	push   $0x3f45
     66d:	ff 35 c8 5d 00 00    	pushl  0x5dc8
     673:	e8 98 33 00 00       	call   3a10 <printf>
  fd = open("big", O_CREATE|O_RDWR);
     678:	59                   	pop    %ecx
     679:	5b                   	pop    %ebx
     67a:	68 02 02 00 00       	push   $0x202
     67f:	68 bf 3f 00 00       	push   $0x3fbf
     684:	e8 79 32 00 00       	call   3902 <open>
  if(fd < 0){
     689:	83 c4 10             	add    $0x10,%esp
     68c:	85 c0                	test   %eax,%eax
     68e:	0f 88 64 01 00 00    	js     7f8 <writetest1+0x198>
     694:	89 c6                	mov    %eax,%esi
     696:	31 db                	xor    %ebx,%ebx
     698:	90                   	nop
     699:	8d b4 26 00 00 00 00 	lea    0x0(%esi,%eiz,1),%esi
    if(write(fd, buf, 512) != 512){
     6a0:	83 ec 04             	sub    $0x4,%esp
    ((int*)buf)[0] = i;
     6a3:	89 1d a0 85 00 00    	mov    %ebx,0x85a0
    if(write(fd, buf, 512) != 512){
     6a9:	68 00 02 00 00       	push   $0x200
     6ae:	68 a0 85 00 00       	push   $0x85a0
     6b3:	56                   	push   %esi
     6b4:	e8 29 32 00 00       	call   38e2 <write>
     6b9:	83 c4 10             	add    $0x10,%esp
     6bc:	3d 00 02 00 00       	cmp    $0x200,%eax
     6c1:	0f 85 b3 00 00 00    	jne    77a <writetest1+0x11a>
  for(i = 0; i < MAXFILE; i++){
     6c7:	83 c3 01             	add    $0x1,%ebx
     6ca:	81 fb 8c 00 00 00    	cmp    $0x8c,%ebx
     6d0:	75 ce                	jne    6a0 <writetest1+0x40>
  close(fd);
     6d2:	83 ec 0c             	sub    $0xc,%esp
     6d5:	56                   	push   %esi
     6d6:	e8 0f 32 00 00       	call   38ea <close>
  fd = open("big", O_RDONLY);
     6db:	58                   	pop    %eax
     6dc:	5a                   	pop    %edx
     6dd:	6a 00                	push   $0x0
     6df:	68 bf 3f 00 00       	push   $0x3fbf
     6e4:	e8 19 32 00 00       	call   3902 <open>
  if(fd < 0){
     6e9:	83 c4 10             	add    $0x10,%esp
     6ec:	85 c0                	test   %eax,%eax
  fd = open("big", O_RDONLY);
     6ee:	89 c6                	mov    %eax,%esi
  if(fd < 0){
     6f0:	0f 88 ea 00 00 00    	js     7e0 <writetest1+0x180>
     6f6:	31 db                	xor    %ebx,%ebx
     6f8:	eb 1d                	jmp    717 <writetest1+0xb7>
     6fa:	8d b6 00 00 00 00    	lea    0x0(%esi),%esi
    } else if(i != 512){
     700:	3d 00 02 00 00       	cmp    $0x200,%eax
     705:	0f 85 9f 00 00 00    	jne    7aa <writetest1+0x14a>
    if(((int*)buf)[0] != n){
     70b:	a1 a0 85 00 00       	mov    0x85a0,%eax
     710:	39 c3                	cmp    %eax,%ebx
     712:	75 7f                	jne    793 <writetest1+0x133>
    n++;
     714:	83 c3 01             	add    $0x1,%ebx
    i = read(fd, buf, 512);
     717:	83 ec 04             	sub    $0x4,%esp
     71a:	68 00 02 00 00       	push   $0x200
     71f:	68 a0 85 00 00       	push   $0x85a0
     724:	56                   	push   %esi
     725:	e8 b0 31 00 00       	call   38da <read>
    if(i == 0){
     72a:	83 c4 10             	add    $0x10,%esp
     72d:	85 c0                	test   %eax,%eax
     72f:	75 cf                	jne    700 <writetest1+0xa0>
      if(n == MAXFILE - 1){
     731:	81 fb 8b 00 00 00    	cmp    $0x8b,%ebx
     737:	0f 84 86 00 00 00    	je     7c3 <writetest1+0x163>
  close(fd);
     73d:	83 ec 0c             	sub    $0xc,%esp
     740:	56                   	push   %esi
     741:	e8 a4 31 00 00       	call   38ea <close>
  if(unlink("big") < 0){
     746:	c7 04 24 bf 3f 00 00 	movl   $0x3fbf,(%esp)
     74d:	e8 c0 31 00 00       	call   3912 <unlink>
     752:	83 c4 10             	add    $0x10,%esp
     755:	85 c0                	test   %eax,%eax
     757:	0f 88 b3 00 00 00    	js     810 <writetest1+0x1b0>
  printf(stdout, "big files ok\n");
     75d:	83 ec 08             	sub    $0x8,%esp
     760:	68 e6 3f 00 00       	push   $0x3fe6
     765:	ff 35 c8 5d 00 00    	pushl  0x5dc8
     76b:	e8 a0 32 00 00       	call   3a10 <printf>
}
     770:	83 c4 10             	add    $0x10,%esp
     773:	8d 65 f8             	lea    -0x8(%ebp),%esp
     776:	5b                   	pop    %ebx
     777:	5e                   	pop    %esi
     778:	5d                   	pop    %ebp
     779:	c3                   	ret    
      printf(stdout, "error: write big file failed\n", i);
     77a:	83 ec 04             	sub    $0x4,%esp
     77d:	53                   	push   %ebx
     77e:	68 6f 3f 00 00       	push   $0x3f6f
     783:	ff 35 c8 5d 00 00    	pushl  0x5dc8
     789:	e8 82 32 00 00       	call   3a10 <printf>
      exit();
     78e:	e8 2f 31 00 00       	call   38c2 <exit>
      printf(stdout, "read content of block %d is %d\n",
     793:	50                   	push   %eax
     794:	53                   	push   %ebx
     795:	68 c0 4d 00 00       	push   $0x4dc0
     79a:	ff 35 c8 5d 00 00    	pushl  0x5dc8
     7a0:	e8 6b 32 00 00       	call   3a10 <printf>
      exit();
     7a5:	e8 18 31 00 00       	call   38c2 <exit>
      printf(stdout, "read failed %d\n", i);
     7aa:	83 ec 04             	sub    $0x4,%esp
     7ad:	50                   	push   %eax
     7ae:	68 c3 3f 00 00       	push   $0x3fc3
     7b3:	ff 35 c8 5d 00 00    	pushl  0x5dc8
     7b9:	e8 52 32 00 00       	call   3a10 <printf>
      exit();
     7be:	e8 ff 30 00 00       	call   38c2 <exit>
        printf(stdout, "read only %d blocks from big", n);
     7c3:	83 ec 04             	sub    $0x4,%esp
     7c6:	68 8b 00 00 00       	push   $0x8b
     7cb:	68 a6 3f 00 00       	push   $0x3fa6
     7d0:	ff 35 c8 5d 00 00    	pushl  0x5dc8
     7d6:	e8 35 32 00 00       	call   3a10 <printf>
        exit();
     7db:	e8 e2 30 00 00       	call   38c2 <exit>
    printf(stdout, "error: open big failed!\n");
     7e0:	83 ec 08             	sub    $0x8,%esp
     7e3:	68 8d 3f 00 00       	push   $0x3f8d
     7e8:	ff 35 c8 5d 00 00    	pushl  0x5dc8
     7ee:	e8 1d 32 00 00       	call   3a10 <printf>
    exit();
     7f3:	e8 ca 30 00 00       	call   38c2 <exit>
    printf(stdout, "error: creat big failed!\n");
     7f8:	83 ec 08             	sub    $0x8,%esp
     7fb:	68 55 3f 00 00       	push   $0x3f55
     800:	ff 35 c8 5d 00 00    	pushl  0x5dc8
     806:	e8 05 32 00 00       	call   3a10 <printf>
    exit();
     80b:	e8 b2 30 00 00       	call   38c2 <exit>
    printf(stdout, "unlink big failed\n");
     810:	83 ec 08             	sub    $0x8,%esp
     813:	68 d3 3f 00 00       	push   $0x3fd3
     818:	ff 35 c8 5d 00 00    	pushl  0x5dc8
     81e:	e8 ed 31 00 00       	call   3a10 <printf>
    exit();
     823:	e8 9a 30 00 00       	call   38c2 <exit>
     828:	90                   	nop
     829:	8d b4 26 00 00 00 00 	lea    0x0(%esi,%eiz,1),%esi

00000830 <createtest>:
{
     830:	55                   	push   %ebp
     831:	89 e5                	mov    %esp,%ebp
     833:	53                   	push   %ebx
  name[2] = '\0';
     834:	bb 30 00 00 00       	mov    $0x30,%ebx
{
     839:	83 ec 0c             	sub    $0xc,%esp
  printf(stdout, "many creates, followed by unlink test\n");
     83c:	68 e0 4d 00 00       	push   $0x4de0
     841:	ff 35 c8 5d 00 00    	pushl  0x5dc8
     847:	e8 c4 31 00 00       	call   3a10 <printf>
  name[0] = 'a';
     84c:	c6 05 a0 a5 00 00 61 	movb   $0x61,0xa5a0
  name[2] = '\0';
     853:	c6 05 a2 a5 00 00 00 	movb   $0x0,0xa5a2
     85a:	83 c4 10             	add    $0x10,%esp
     85d:	8d 76 00             	lea    0x0(%esi),%esi
    fd = open(name, O_CREATE|O_RDWR);
     860:	83 ec 08             	sub    $0x8,%esp
    name[1] = '0' + i;
     863:	88 1d a1 a5 00 00    	mov    %bl,0xa5a1
     869:	83 c3 01             	add    $0x1,%ebx
    fd = open(name, O_CREATE|O_RDWR);
     86c:	68 02 02 00 00       	push   $0x202
     871:	68 a0 a5 00 00       	push   $0xa5a0
     876:	e8 87 30 00 00       	call   3902 <open>
    close(fd);
     87b:	89 04 24             	mov    %eax,(%esp)
     87e:	e8 67 30 00 00       	call   38ea <close>
  for(i = 0; i < 52; i++){
     883:	83 c4 10             	add    $0x10,%esp
     886:	80 fb 64             	cmp    $0x64,%bl
     889:	75 d5                	jne    860 <createtest+0x30>
  name[0] = 'a';
     88b:	c6 05 a0 a5 00 00 61 	movb   $0x61,0xa5a0
  name[2] = '\0';
     892:	c6 05 a2 a5 00 00 00 	movb   $0x0,0xa5a2
     899:	bb 30 00 00 00       	mov    $0x30,%ebx
     89e:	66 90                	xchg   %ax,%ax
    unlink(name);
     8a0:	83 ec 0c             	sub    $0xc,%esp
    name[1] = '0' + i;
     8a3:	88 1d a1 a5 00 00    	mov    %bl,0xa5a1
     8a9:	83 c3 01             	add    $0x1,%ebx
    unlink(name);
     8ac:	68 a0 a5 00 00       	push   $0xa5a0
     8b1:	e8 5c 30 00 00       	call   3912 <unlink>
  for(i = 0; i < 52; i++){
     8b6:	83 c4 10             	add    $0x10,%esp
     8b9:	80 fb 64             	cmp    $0x64,%bl
     8bc:	75 e2                	jne    8a0 <createtest+0x70>
  printf(stdout, "many creates, followed by unlink; ok\n");
     8be:	83 ec 08             	sub    $0x8,%esp
     8c1:	68 08 4e 00 00       	push   $0x4e08
     8c6:	ff 35 c8 5d 00 00    	pushl  0x5dc8
     8cc:	e8 3f 31 00 00       	call   3a10 <printf>
}
     8d1:	83 c4 10             	add    $0x10,%esp
     8d4:	8b 5d fc             	mov    -0x4(%ebp),%ebx
     8d7:	c9                   	leave  
     8d8:	c3                   	ret    
     8d9:	8d b4 26 00 00 00 00 	lea    0x0(%esi,%eiz,1),%esi

000008e0 <dirtest>:
{
     8e0:	55                   	push   %ebp
     8e1:	89 e5                	mov    %esp,%ebp
     8e3:	83 ec 10             	sub    $0x10,%esp
  printf(stdout, "mkdir test\n");
     8e6:	68 f4 3f 00 00       	push   $0x3ff4
     8eb:	ff 35 c8 5d 00 00    	pushl  0x5dc8
     8f1:	e8 1a 31 00 00       	call   3a10 <printf>
  if(mkdir("dir0") < 0){
     8f6:	c7 04 24 00 40 00 00 	movl   $0x4000,(%esp)
     8fd:	e8 28 30 00 00       	call   392a <mkdir>
     902:	83 c4 10             	add    $0x10,%esp
     905:	85 c0                	test   %eax,%eax
     907:	78 58                	js     961 <dirtest+0x81>
  if(chdir("dir0") < 0){
     909:	83 ec 0c             	sub    $0xc,%esp
     90c:	68 00 40 00 00       	push   $0x4000
     911:	e8 1c 30 00 00       	call   3932 <chdir>
     916:	83 c4 10             	add    $0x10,%esp
     919:	85 c0                	test   %eax,%eax
     91b:	0f 88 85 00 00 00    	js     9a6 <dirtest+0xc6>
  if(chdir("..") < 0){
     921:	83 ec 0c             	sub    $0xc,%esp
     924:	68 a5 45 00 00       	push   $0x45a5
     929:	e8 04 30 00 00       	call   3932 <chdir>
     92e:	83 c4 10             	add    $0x10,%esp
     931:	85 c0                	test   %eax,%eax
     933:	78 5a                	js     98f <dirtest+0xaf>
  if(unlink("dir0") < 0){
     935:	83 ec 0c             	sub    $0xc,%esp
     938:	68 00 40 00 00       	push   $0x4000
     93d:	e8 d0 2f 00 00       	call   3912 <unlink>
     942:	83 c4 10             	add    $0x10,%esp
     945:	85 c0                	test   %eax,%eax
     947:	78 2f                	js     978 <dirtest+0x98>
  printf(stdout, "mkdir test ok\n");
     949:	83 ec 08             	sub    $0x8,%esp
     94c:	68 3d 40 00 00       	push   $0x403d
     951:	ff 35 c8 5d 00 00    	pushl  0x5dc8
     957:	e8 b4 30 00 00       	call   3a10 <printf>
}
     95c:	83 c4 10             	add    $0x10,%esp
     95f:	c9                   	leave  
     960:	c3                   	ret    
    printf(stdout, "mkdir failed\n");
     961:	50                   	push   %eax
     962:	50                   	push   %eax
     963:	68 30 3d 00 00       	push   $0x3d30
     968:	ff 35 c8 5d 00 00    	pushl  0x5dc8
     96e:	e8 9d 30 00 00       	call   3a10 <printf>
    exit();
     973:	e8 4a 2f 00 00       	call   38c2 <exit>
    printf(stdout, "unlink dir0 failed\n");
     978:	50                   	push   %eax
     979:	50                   	push   %eax
     97a:	68 29 40 00 00       	push   $0x4029
     97f:	ff 35 c8 5d 00 00    	pushl  0x5dc8
     985:	e8 86 30 00 00       	call   3a10 <printf>
    exit();
     98a:	e8 33 2f 00 00       	call   38c2 <exit>
    printf(stdout, "chdir .. failed\n");
     98f:	52                   	push   %edx
     990:	52                   	push   %edx
     991:	68 18 40 00 00       	push   $0x4018
     996:	ff 35 c8 5d 00 00    	pushl  0x5dc8
     99c:	e8 6f 30 00 00       	call   3a10 <printf>
    exit();
     9a1:	e8 1c 2f 00 00       	call   38c2 <exit>
    printf(stdout, "chdir dir0 failed\n");
     9a6:	51                   	push   %ecx
     9a7:	51                   	push   %ecx
     9a8:	68 05 40 00 00       	push   $0x4005
     9ad:	ff 35 c8 5d 00 00    	pushl  0x5dc8
     9b3:	e8 58 30 00 00       	call   3a10 <printf>
    exit();
     9b8:	e8 05 2f 00 00       	call   38c2 <exit>
     9bd:	8d 76 00             	lea    0x0(%esi),%esi

000009c0 <exectest>:
{
     9c0:	55                   	push   %ebp
     9c1:	89 e5                	mov    %esp,%ebp
     9c3:	83 ec 10             	sub    $0x10,%esp
  printf(stdout, "exec test\n");
     9c6:	68 4c 40 00 00       	push   $0x404c
     9cb:	ff 35 c8 5d 00 00    	pushl  0x5dc8
     9d1:	e8 3a 30 00 00       	call   3a10 <printf>
  if(exec("echo", echoargv) < 0){
     9d6:	5a                   	pop    %edx
     9d7:	59                   	pop    %ecx
     9d8:	68 cc 5d 00 00       	push   $0x5dcc
     9dd:	68 15 3e 00 00       	push   $0x3e15
     9e2:	e8 13 2f 00 00       	call   38fa <exec>
     9e7:	83 c4 10             	add    $0x10,%esp
     9ea:	85 c0                	test   %eax,%eax
     9ec:	78 02                	js     9f0 <exectest+0x30>
}
     9ee:	c9                   	leave  
     9ef:	c3                   	ret    
    printf(stdout, "exec echo failed\n");
     9f0:	50                   	push   %eax
     9f1:	50                   	push   %eax
     9f2:	68 57 40 00 00       	push   $0x4057
     9f7:	ff 35 c8 5d 00 00    	pushl  0x5dc8
     9fd:	e8 0e 30 00 00       	call   3a10 <printf>
    exit();
     a02:	e8 bb 2e 00 00       	call   38c2 <exit>
     a07:	89 f6                	mov    %esi,%esi
     a09:	8d bc 27 00 00 00 00 	lea    0x0(%edi,%eiz,1),%edi

00000a10 <pipe1>:
{
     a10:	55                   	push   %ebp
     a11:	89 e5                	mov    %esp,%ebp
     a13:	57                   	push   %edi
     a14:	56                   	push   %esi
     a15:	53                   	push   %ebx
  if(pipe(fds) != 0){
     a16:	8d 45 e0             	lea    -0x20(%ebp),%eax
{
     a19:	83 ec 38             	sub    $0x38,%esp
  if(pipe(fds) != 0){
     a1c:	50                   	push   %eax
     a1d:	e8 b0 2e 00 00       	call   38d2 <pipe>
     a22:	83 c4 10             	add    $0x10,%esp
     a25:	85 c0                	test   %eax,%eax
     a27:	0f 85 3d 01 00 00    	jne    b6a <pipe1+0x15a>
     a2d:	89 c3                	mov    %eax,%ebx
  pid = fork();
     a2f:	e8 86 2e 00 00       	call   38ba <fork>
  if(pid == 0){
     a34:	83 f8 00             	cmp    $0x0,%eax
  pid = fork();
     a37:	89 c6                	mov    %eax,%esi
  if(pid == 0){
     a39:	0f 84 8a 00 00 00    	je     ac9 <pipe1+0xb9>
  } else if(pid > 0){
     a3f:	0f 8e 39 01 00 00    	jle    b7e <pipe1+0x16e>
    close(fds[1]);
     a45:	83 ec 0c             	sub    $0xc,%esp
     a48:	ff 75 e4             	pushl  -0x1c(%ebp)
    cc = 1;
     a4b:	bf 01 00 00 00       	mov    $0x1,%edi
    close(fds[1]);
     a50:	e8 95 2e 00 00       	call   38ea <close>
    while((n = read(fds[0], buf, cc)) > 0){
     a55:	83 c4 10             	add    $0x10,%esp
    total = 0;
     a58:	c7 45 d4 00 00 00 00 	movl   $0x0,-0x2c(%ebp)
    while((n = read(fds[0], buf, cc)) > 0){
     a5f:	83 ec 04             	sub    $0x4,%esp
     a62:	57                   	push   %edi
     a63:	68 a0 85 00 00       	push   $0x85a0
     a68:	ff 75 e0             	pushl  -0x20(%ebp)
     a6b:	e8 6a 2e 00 00       	call   38da <read>
     a70:	83 c4 10             	add    $0x10,%esp
     a73:	85 c0                	test   %eax,%eax
     a75:	0f 8e a9 00 00 00    	jle    b24 <pipe1+0x114>
        if((buf[i] & 0xff) != (seq++ & 0xff)){
     a7b:	89 d9                	mov    %ebx,%ecx
     a7d:	8d 34 18             	lea    (%eax,%ebx,1),%esi
     a80:	f7 d9                	neg    %ecx
     a82:	8d b6 00 00 00 00    	lea    0x0(%esi),%esi
     a88:	38 9c 0b a0 85 00 00 	cmp    %bl,0x85a0(%ebx,%ecx,1)
     a8f:	8d 53 01             	lea    0x1(%ebx),%edx
     a92:	75 1b                	jne    aaf <pipe1+0x9f>
      for(i = 0; i < n; i++){
     a94:	39 f2                	cmp    %esi,%edx
     a96:	89 d3                	mov    %edx,%ebx
     a98:	75 ee                	jne    a88 <pipe1+0x78>
      cc = cc * 2;
     a9a:	01 ff                	add    %edi,%edi
      total += n;
     a9c:	01 45 d4             	add    %eax,-0x2c(%ebp)
     a9f:	b8 00 20 00 00       	mov    $0x2000,%eax
     aa4:	81 ff 00 20 00 00    	cmp    $0x2000,%edi
     aaa:	0f 4f f8             	cmovg  %eax,%edi
     aad:	eb b0                	jmp    a5f <pipe1+0x4f>
          printf(1, "pipe1 oops 2\n");
     aaf:	83 ec 08             	sub    $0x8,%esp
     ab2:	68 86 40 00 00       	push   $0x4086
     ab7:	6a 01                	push   $0x1
     ab9:	e8 52 2f 00 00       	call   3a10 <printf>
          return;
     abe:	83 c4 10             	add    $0x10,%esp
}
     ac1:	8d 65 f4             	lea    -0xc(%ebp),%esp
     ac4:	5b                   	pop    %ebx
     ac5:	5e                   	pop    %esi
     ac6:	5f                   	pop    %edi
     ac7:	5d                   	pop    %ebp
     ac8:	c3                   	ret    
    close(fds[0]);
     ac9:	83 ec 0c             	sub    $0xc,%esp
     acc:	ff 75 e0             	pushl  -0x20(%ebp)
     acf:	e8 16 2e 00 00       	call   38ea <close>
     ad4:	83 c4 10             	add    $0x10,%esp
        buf[i] = seq++;
     ad7:	89 f0                	mov    %esi,%eax
     ad9:	8d 96 09 04 00 00    	lea    0x409(%esi),%edx
{
     adf:	89 f3                	mov    %esi,%ebx
        buf[i] = seq++;
     ae1:	f7 d8                	neg    %eax
     ae3:	90                   	nop
     ae4:	8d 74 26 00          	lea    0x0(%esi,%eiz,1),%esi
     ae8:	88 9c 18 a0 85 00 00 	mov    %bl,0x85a0(%eax,%ebx,1)
     aef:	83 c3 01             	add    $0x1,%ebx
      for(i = 0; i < 1033; i++)
     af2:	39 d3                	cmp    %edx,%ebx
     af4:	75 f2                	jne    ae8 <pipe1+0xd8>
      if(write(fds[1], buf, 1033) != 1033){
     af6:	83 ec 04             	sub    $0x4,%esp
     af9:	89 de                	mov    %ebx,%esi
     afb:	68 09 04 00 00       	push   $0x409
     b00:	68 a0 85 00 00       	push   $0x85a0
     b05:	ff 75 e4             	pushl  -0x1c(%ebp)
     b08:	e8 d5 2d 00 00       	call   38e2 <write>
     b0d:	83 c4 10             	add    $0x10,%esp
     b10:	3d 09 04 00 00       	cmp    $0x409,%eax
     b15:	75 7b                	jne    b92 <pipe1+0x182>
    for(n = 0; n < 5; n++){
     b17:	81 fb 2d 14 00 00    	cmp    $0x142d,%ebx
     b1d:	75 b8                	jne    ad7 <pipe1+0xc7>
    exit();
     b1f:	e8 9e 2d 00 00       	call   38c2 <exit>
    if(total != 5 * 1033){
     b24:	81 7d d4 2d 14 00 00 	cmpl   $0x142d,-0x2c(%ebp)
     b2b:	75 26                	jne    b53 <pipe1+0x143>
    close(fds[0]);
     b2d:	83 ec 0c             	sub    $0xc,%esp
     b30:	ff 75 e0             	pushl  -0x20(%ebp)
     b33:	e8 b2 2d 00 00       	call   38ea <close>
    wait();
     b38:	e8 8d 2d 00 00       	call   38ca <wait>
  printf(1, "pipe1 ok\n");
     b3d:	58                   	pop    %eax
     b3e:	5a                   	pop    %edx
     b3f:	68 ab 40 00 00       	push   $0x40ab
     b44:	6a 01                	push   $0x1
     b46:	e8 c5 2e 00 00       	call   3a10 <printf>
     b4b:	83 c4 10             	add    $0x10,%esp
     b4e:	e9 6e ff ff ff       	jmp    ac1 <pipe1+0xb1>
      printf(1, "pipe1 oops 3 total %d\n", total);
     b53:	83 ec 04             	sub    $0x4,%esp
     b56:	ff 75 d4             	pushl  -0x2c(%ebp)
     b59:	68 94 40 00 00       	push   $0x4094
     b5e:	6a 01                	push   $0x1
     b60:	e8 ab 2e 00 00       	call   3a10 <printf>
      exit();
     b65:	e8 58 2d 00 00       	call   38c2 <exit>
    printf(1, "pipe() failed\n");
     b6a:	83 ec 08             	sub    $0x8,%esp
     b6d:	68 69 40 00 00       	push   $0x4069
     b72:	6a 01                	push   $0x1
     b74:	e8 97 2e 00 00       	call   3a10 <printf>
    exit();
     b79:	e8 44 2d 00 00       	call   38c2 <exit>
    printf(1, "fork() failed\n");
     b7e:	83 ec 08             	sub    $0x8,%esp
     b81:	68 b5 40 00 00       	push   $0x40b5
     b86:	6a 01                	push   $0x1
     b88:	e8 83 2e 00 00       	call   3a10 <printf>
    exit();
     b8d:	e8 30 2d 00 00       	call   38c2 <exit>
        printf(1, "pipe1 oops 1\n");
     b92:	83 ec 08             	sub    $0x8,%esp
     b95:	68 78 40 00 00       	push   $0x4078
     b9a:	6a 01                	push   $0x1
     b9c:	e8 6f 2e 00 00       	call   3a10 <printf>
        exit();
     ba1:	e8 1c 2d 00 00       	call   38c2 <exit>
     ba6:	8d 76 00             	lea    0x0(%esi),%esi
     ba9:	8d bc 27 00 00 00 00 	lea    0x0(%edi,%eiz,1),%edi

00000bb0 <preempt>:
{
     bb0:	55                   	push   %ebp
     bb1:	89 e5                	mov    %esp,%ebp
     bb3:	57                   	push   %edi
     bb4:	56                   	push   %esi
     bb5:	53                   	push   %ebx
     bb6:	83 ec 24             	sub    $0x24,%esp
  printf(1, "preempt: ");
     bb9:	68 c4 40 00 00       	push   $0x40c4
     bbe:	6a 01                	push   $0x1
     bc0:	e8 4b 2e 00 00       	call   3a10 <printf>
  pid1 = fork();
     bc5:	e8 f0 2c 00 00       	call   38ba <fork>
  if(pid1 == 0)
     bca:	83 c4 10             	add    $0x10,%esp
     bcd:	85 c0                	test   %eax,%eax
     bcf:	75 02                	jne    bd3 <preempt+0x23>
     bd1:	eb fe                	jmp    bd1 <preempt+0x21>
     bd3:	89 c7                	mov    %eax,%edi
  pid2 = fork();
     bd5:	e8 e0 2c 00 00       	call   38ba <fork>
  if(pid2 == 0)
     bda:	85 c0                	test   %eax,%eax
  pid2 = fork();
     bdc:	89 c6                	mov    %eax,%esi
  if(pid2 == 0)
     bde:	75 02                	jne    be2 <preempt+0x32>
     be0:	eb fe                	jmp    be0 <preempt+0x30>
  pipe(pfds);
     be2:	8d 45 e0             	lea    -0x20(%ebp),%eax
     be5:	83 ec 0c             	sub    $0xc,%esp
     be8:	50                   	push   %eax
     be9:	e8 e4 2c 00 00       	call   38d2 <pipe>
  pid3 = fork();
     bee:	e8 c7 2c 00 00       	call   38ba <fork>
  if(pid3 == 0){
     bf3:	83 c4 10             	add    $0x10,%esp
     bf6:	85 c0                	test   %eax,%eax
  pid3 = fork();
     bf8:	89 c3                	mov    %eax,%ebx
  if(pid3 == 0){
     bfa:	75 47                	jne    c43 <preempt+0x93>
    close(pfds[0]);
     bfc:	83 ec 0c             	sub    $0xc,%esp
     bff:	ff 75 e0             	pushl  -0x20(%ebp)
     c02:	e8 e3 2c 00 00       	call   38ea <close>
    if(write(pfds[1], "x", 1) != 1)
     c07:	83 c4 0c             	add    $0xc,%esp
     c0a:	6a 01                	push   $0x1
     c0c:	68 89 46 00 00       	push   $0x4689
     c11:	ff 75 e4             	pushl  -0x1c(%ebp)
     c14:	e8 c9 2c 00 00       	call   38e2 <write>
     c19:	83 c4 10             	add    $0x10,%esp
     c1c:	83 f8 01             	cmp    $0x1,%eax
     c1f:	74 12                	je     c33 <preempt+0x83>
      printf(1, "preempt write error");
     c21:	83 ec 08             	sub    $0x8,%esp
     c24:	68 ce 40 00 00       	push   $0x40ce
     c29:	6a 01                	push   $0x1
     c2b:	e8 e0 2d 00 00       	call   3a10 <printf>
     c30:	83 c4 10             	add    $0x10,%esp
    close(pfds[1]);
     c33:	83 ec 0c             	sub    $0xc,%esp
     c36:	ff 75 e4             	pushl  -0x1c(%ebp)
     c39:	e8 ac 2c 00 00       	call   38ea <close>
     c3e:	83 c4 10             	add    $0x10,%esp
     c41:	eb fe                	jmp    c41 <preempt+0x91>
  close(pfds[1]);
     c43:	83 ec 0c             	sub    $0xc,%esp
     c46:	ff 75 e4             	pushl  -0x1c(%ebp)
     c49:	e8 9c 2c 00 00       	call   38ea <close>
  if(read(pfds[0], buf, sizeof(buf)) != 1){
     c4e:	83 c4 0c             	add    $0xc,%esp
     c51:	68 00 20 00 00       	push   $0x2000
     c56:	68 a0 85 00 00       	push   $0x85a0
     c5b:	ff 75 e0             	pushl  -0x20(%ebp)
     c5e:	e8 77 2c 00 00       	call   38da <read>
     c63:	83 c4 10             	add    $0x10,%esp
     c66:	83 f8 01             	cmp    $0x1,%eax
     c69:	74 1a                	je     c85 <preempt+0xd5>
    printf(1, "preempt read error");
     c6b:	83 ec 08             	sub    $0x8,%esp
     c6e:	68 e2 40 00 00       	push   $0x40e2
     c73:	6a 01                	push   $0x1
     c75:	e8 96 2d 00 00       	call   3a10 <printf>
    return;
     c7a:	83 c4 10             	add    $0x10,%esp
}
     c7d:	8d 65 f4             	lea    -0xc(%ebp),%esp
     c80:	5b                   	pop    %ebx
     c81:	5e                   	pop    %esi
     c82:	5f                   	pop    %edi
     c83:	5d                   	pop    %ebp
     c84:	c3                   	ret    
  close(pfds[0]);
     c85:	83 ec 0c             	sub    $0xc,%esp
     c88:	ff 75 e0             	pushl  -0x20(%ebp)
     c8b:	e8 5a 2c 00 00       	call   38ea <close>
  printf(1, "kill... ");
     c90:	58                   	pop    %eax
     c91:	5a                   	pop    %edx
     c92:	68 f5 40 00 00       	push   $0x40f5
     c97:	6a 01                	push   $0x1
     c99:	e8 72 2d 00 00       	call   3a10 <printf>
  kill(pid1);
     c9e:	89 3c 24             	mov    %edi,(%esp)
     ca1:	e8 4c 2c 00 00       	call   38f2 <kill>
  kill(pid2);
     ca6:	89 34 24             	mov    %esi,(%esp)
     ca9:	e8 44 2c 00 00       	call   38f2 <kill>
  kill(pid3);
     cae:	89 1c 24             	mov    %ebx,(%esp)
     cb1:	e8 3c 2c 00 00       	call   38f2 <kill>
  printf(1, "wait... ");
     cb6:	59                   	pop    %ecx
     cb7:	5b                   	pop    %ebx
     cb8:	68 fe 40 00 00       	push   $0x40fe
     cbd:	6a 01                	push   $0x1
     cbf:	e8 4c 2d 00 00       	call   3a10 <printf>
  wait();
     cc4:	e8 01 2c 00 00       	call   38ca <wait>
  wait();
     cc9:	e8 fc 2b 00 00       	call   38ca <wait>
  wait();
     cce:	e8 f7 2b 00 00       	call   38ca <wait>
  printf(1, "preempt ok\n");
     cd3:	5e                   	pop    %esi
     cd4:	5f                   	pop    %edi
     cd5:	68 07 41 00 00       	push   $0x4107
     cda:	6a 01                	push   $0x1
     cdc:	e8 2f 2d 00 00       	call   3a10 <printf>
     ce1:	83 c4 10             	add    $0x10,%esp
     ce4:	eb 97                	jmp    c7d <preempt+0xcd>
     ce6:	8d 76 00             	lea    0x0(%esi),%esi
     ce9:	8d bc 27 00 00 00 00 	lea    0x0(%edi,%eiz,1),%edi

00000cf0 <exitwait>:
{
     cf0:	55                   	push   %ebp
     cf1:	89 e5                	mov    %esp,%ebp
     cf3:	56                   	push   %esi
     cf4:	be 64 00 00 00       	mov    $0x64,%esi
     cf9:	53                   	push   %ebx
     cfa:	eb 14                	jmp    d10 <exitwait+0x20>
     cfc:	8d 74 26 00          	lea    0x0(%esi,%eiz,1),%esi
    if(pid){
     d00:	74 6f                	je     d71 <exitwait+0x81>
      if(wait() != pid){
     d02:	e8 c3 2b 00 00       	call   38ca <wait>
     d07:	39 c3                	cmp    %eax,%ebx
     d09:	75 2d                	jne    d38 <exitwait+0x48>
  for(i = 0; i < 100; i++){
     d0b:	83 ee 01             	sub    $0x1,%esi
     d0e:	74 48                	je     d58 <exitwait+0x68>
    pid = fork();
     d10:	e8 a5 2b 00 00       	call   38ba <fork>
    if(pid < 0){
     d15:	85 c0                	test   %eax,%eax
    pid = fork();
     d17:	89 c3                	mov    %eax,%ebx
    if(pid < 0){
     d19:	79 e5                	jns    d00 <exitwait+0x10>
      printf(1, "fork failed\n");
     d1b:	83 ec 08             	sub    $0x8,%esp
     d1e:	68 71 4c 00 00       	push   $0x4c71
     d23:	6a 01                	push   $0x1
     d25:	e8 e6 2c 00 00       	call   3a10 <printf>
      return;
     d2a:	83 c4 10             	add    $0x10,%esp
}
     d2d:	8d 65 f8             	lea    -0x8(%ebp),%esp
     d30:	5b                   	pop    %ebx
     d31:	5e                   	pop    %esi
     d32:	5d                   	pop    %ebp
     d33:	c3                   	ret    
     d34:	8d 74 26 00          	lea    0x0(%esi,%eiz,1),%esi
        printf(1, "wait wrong pid\n");
     d38:	83 ec 08             	sub    $0x8,%esp
     d3b:	68 13 41 00 00       	push   $0x4113
     d40:	6a 01                	push   $0x1
     d42:	e8 c9 2c 00 00       	call   3a10 <printf>
        return;
     d47:	83 c4 10             	add    $0x10,%esp
}
     d4a:	8d 65 f8             	lea    -0x8(%ebp),%esp
     d4d:	5b                   	pop    %ebx
     d4e:	5e                   	pop    %esi
     d4f:	5d                   	pop    %ebp
     d50:	c3                   	ret    
     d51:	8d b4 26 00 00 00 00 	lea    0x0(%esi,%eiz,1),%esi
  printf(1, "exitwait ok\n");
     d58:	83 ec 08             	sub    $0x8,%esp
     d5b:	68 23 41 00 00       	push   $0x4123
     d60:	6a 01                	push   $0x1
     d62:	e8 a9 2c 00 00       	call   3a10 <printf>
     d67:	83 c4 10             	add    $0x10,%esp
}
     d6a:	8d 65 f8             	lea    -0x8(%ebp),%esp
     d6d:	5b                   	pop    %ebx
     d6e:	5e                   	pop    %esi
     d6f:	5d                   	pop    %ebp
     d70:	c3                   	ret    
      exit();
     d71:	e8 4c 2b 00 00       	call   38c2 <exit>
     d76:	8d 76 00             	lea    0x0(%esi),%esi
     d79:	8d bc 27 00 00 00 00 	lea    0x0(%edi,%eiz,1),%edi

00000d80 <mem>:
{
     d80:	55                   	push   %ebp
     d81:	89 e5                	mov    %esp,%ebp
     d83:	57                   	push   %edi
     d84:	56                   	push   %esi
     d85:	53                   	push   %ebx
     d86:	83 ec 14             	sub    $0x14,%esp
  printf(1, "mem test\n");
     d89:	68 30 41 00 00       	push   $0x4130
     d8e:	6a 01                	push   $0x1
     d90:	e8 7b 2c 00 00       	call   3a10 <printf>
  ppid = getpid();
     d95:	e8 a8 2b 00 00       	call   3942 <getpid>
     d9a:	89 c6                	mov    %eax,%esi
  if((pid = fork()) == 0){
     d9c:	e8 19 2b 00 00       	call   38ba <fork>
     da1:	83 c4 10             	add    $0x10,%esp
     da4:	85 c0                	test   %eax,%eax
     da6:	75 70                	jne    e18 <mem+0x98>
     da8:	31 db                	xor    %ebx,%ebx
     daa:	eb 08                	jmp    db4 <mem+0x34>
     dac:	8d 74 26 00          	lea    0x0(%esi,%eiz,1),%esi
      *(char**)m2 = m1;
     db0:	89 18                	mov    %ebx,(%eax)
     db2:	89 c3                	mov    %eax,%ebx
    while((m2 = malloc(10001)) != 0){
     db4:	83 ec 0c             	sub    $0xc,%esp
     db7:	68 11 27 00 00       	push   $0x2711
     dbc:	e8 8f 2e 00 00       	call   3c50 <malloc>
     dc1:	83 c4 10             	add    $0x10,%esp
     dc4:	85 c0                	test   %eax,%eax
     dc6:	75 e8                	jne    db0 <mem+0x30>
    while(m1){
     dc8:	85 db                	test   %ebx,%ebx
     dca:	74 18                	je     de4 <mem+0x64>
     dcc:	8d 74 26 00          	lea    0x0(%esi,%eiz,1),%esi
      m2 = *(char**)m1;
     dd0:	8b 3b                	mov    (%ebx),%edi
      free(m1);
     dd2:	83 ec 0c             	sub    $0xc,%esp
     dd5:	53                   	push   %ebx
     dd6:	89 fb                	mov    %edi,%ebx
     dd8:	e8 e3 2d 00 00       	call   3bc0 <free>
    while(m1){
     ddd:	83 c4 10             	add    $0x10,%esp
     de0:	85 db                	test   %ebx,%ebx
     de2:	75 ec                	jne    dd0 <mem+0x50>
    m1 = malloc(1024*20);
     de4:	83 ec 0c             	sub    $0xc,%esp
     de7:	68 00 50 00 00       	push   $0x5000
     dec:	e8 5f 2e 00 00       	call   3c50 <malloc>
    if(m1 == 0){
     df1:	83 c4 10             	add    $0x10,%esp
     df4:	85 c0                	test   %eax,%eax
     df6:	74 30                	je     e28 <mem+0xa8>
    free(m1);
     df8:	83 ec 0c             	sub    $0xc,%esp
     dfb:	50                   	push   %eax
     dfc:	e8 bf 2d 00 00       	call   3bc0 <free>
    printf(1, "mem ok\n");
     e01:	58                   	pop    %eax
     e02:	5a                   	pop    %edx
     e03:	68 54 41 00 00       	push   $0x4154
     e08:	6a 01                	push   $0x1
     e0a:	e8 01 2c 00 00       	call   3a10 <printf>
    exit();
     e0f:	e8 ae 2a 00 00       	call   38c2 <exit>
     e14:	8d 74 26 00          	lea    0x0(%esi,%eiz,1),%esi
}
     e18:	8d 65 f4             	lea    -0xc(%ebp),%esp
     e1b:	5b                   	pop    %ebx
     e1c:	5e                   	pop    %esi
     e1d:	5f                   	pop    %edi
     e1e:	5d                   	pop    %ebp
    wait();
     e1f:	e9 a6 2a 00 00       	jmp    38ca <wait>
     e24:	8d 74 26 00          	lea    0x0(%esi,%eiz,1),%esi
      printf(1, "couldn't allocate mem?!!\n");
     e28:	83 ec 08             	sub    $0x8,%esp
     e2b:	68 3a 41 00 00       	push   $0x413a
     e30:	6a 01                	push   $0x1
     e32:	e8 d9 2b 00 00       	call   3a10 <printf>
      kill(ppid);
     e37:	89 34 24             	mov    %esi,(%esp)
     e3a:	e8 b3 2a 00 00       	call   38f2 <kill>
      exit();
     e3f:	e8 7e 2a 00 00       	call   38c2 <exit>
     e44:	8d b6 00 00 00 00    	lea    0x0(%esi),%esi
     e4a:	8d bf 00 00 00 00    	lea    0x0(%edi),%edi

00000e50 <sharedfd>:
{
     e50:	55                   	push   %ebp
     e51:	89 e5                	mov    %esp,%ebp
     e53:	57                   	push   %edi
     e54:	56                   	push   %esi
     e55:	53                   	push   %ebx
     e56:	83 ec 34             	sub    $0x34,%esp
  printf(1, "sharedfd test\n");
     e59:	68 5c 41 00 00       	push   $0x415c
     e5e:	6a 01                	push   $0x1
     e60:	e8 ab 2b 00 00       	call   3a10 <printf>
  unlink("sharedfd");
     e65:	c7 04 24 6b 41 00 00 	movl   $0x416b,(%esp)
     e6c:	e8 a1 2a 00 00       	call   3912 <unlink>
  fd = open("sharedfd", O_CREATE|O_RDWR);
     e71:	5b                   	pop    %ebx
     e72:	5e                   	pop    %esi
     e73:	68 02 02 00 00       	push   $0x202
     e78:	68 6b 41 00 00       	push   $0x416b
     e7d:	e8 80 2a 00 00       	call   3902 <open>
  if(fd < 0){
     e82:	83 c4 10             	add    $0x10,%esp
     e85:	85 c0                	test   %eax,%eax
     e87:	0f 88 29 01 00 00    	js     fb6 <sharedfd+0x166>
     e8d:	89 c7                	mov    %eax,%edi
  memset(buf, pid==0?'c':'p', sizeof(buf));
     e8f:	8d 75 de             	lea    -0x22(%ebp),%esi
     e92:	bb e8 03 00 00       	mov    $0x3e8,%ebx
  pid = fork();
     e97:	e8 1e 2a 00 00       	call   38ba <fork>
  memset(buf, pid==0?'c':'p', sizeof(buf));
     e9c:	83 f8 01             	cmp    $0x1,%eax
  pid = fork();
     e9f:	89 45 d4             	mov    %eax,-0x2c(%ebp)
  memset(buf, pid==0?'c':'p', sizeof(buf));
     ea2:	19 c0                	sbb    %eax,%eax
     ea4:	83 ec 04             	sub    $0x4,%esp
     ea7:	83 e0 f3             	and    $0xfffffff3,%eax
     eaa:	6a 0a                	push   $0xa
     eac:	83 c0 70             	add    $0x70,%eax
     eaf:	50                   	push   %eax
     eb0:	56                   	push   %esi
     eb1:	e8 7a 28 00 00       	call   3730 <memset>
     eb6:	83 c4 10             	add    $0x10,%esp
     eb9:	eb 0a                	jmp    ec5 <sharedfd+0x75>
     ebb:	90                   	nop
     ebc:	8d 74 26 00          	lea    0x0(%esi,%eiz,1),%esi
  for(i = 0; i < 1000; i++){
     ec0:	83 eb 01             	sub    $0x1,%ebx
     ec3:	74 26                	je     eeb <sharedfd+0x9b>
    if(write(fd, buf, sizeof(buf)) != sizeof(buf)){
     ec5:	83 ec 04             	sub    $0x4,%esp
     ec8:	6a 0a                	push   $0xa
     eca:	56                   	push   %esi
     ecb:	57                   	push   %edi
     ecc:	e8 11 2a 00 00       	call   38e2 <write>
     ed1:	83 c4 10             	add    $0x10,%esp
     ed4:	83 f8 0a             	cmp    $0xa,%eax
     ed7:	74 e7                	je     ec0 <sharedfd+0x70>
      printf(1, "fstests: write sharedfd failed\n");
     ed9:	83 ec 08             	sub    $0x8,%esp
     edc:	68 5c 4e 00 00       	push   $0x4e5c
     ee1:	6a 01                	push   $0x1
     ee3:	e8 28 2b 00 00       	call   3a10 <printf>
      break;
     ee8:	83 c4 10             	add    $0x10,%esp
  if(pid == 0)
     eeb:	8b 4d d4             	mov    -0x2c(%ebp),%ecx
     eee:	85 c9                	test   %ecx,%ecx
     ef0:	0f 84 f4 00 00 00    	je     fea <sharedfd+0x19a>
    wait();
     ef6:	e8 cf 29 00 00       	call   38ca <wait>
  close(fd);
     efb:	83 ec 0c             	sub    $0xc,%esp
     efe:	31 db                	xor    %ebx,%ebx
     f00:	57                   	push   %edi
     f01:	8d 7d e8             	lea    -0x18(%ebp),%edi
     f04:	e8 e1 29 00 00       	call   38ea <close>
  fd = open("sharedfd", 0);
     f09:	58                   	pop    %eax
     f0a:	5a                   	pop    %edx
     f0b:	6a 00                	push   $0x0
     f0d:	68 6b 41 00 00       	push   $0x416b
     f12:	e8 eb 29 00 00       	call   3902 <open>
  if(fd < 0){
     f17:	83 c4 10             	add    $0x10,%esp
     f1a:	31 d2                	xor    %edx,%edx
     f1c:	85 c0                	test   %eax,%eax
  fd = open("sharedfd", 0);
     f1e:	89 45 d0             	mov    %eax,-0x30(%ebp)
  if(fd < 0){
     f21:	0f 88 a9 00 00 00    	js     fd0 <sharedfd+0x180>
     f27:	89 f6                	mov    %esi,%esi
     f29:	8d bc 27 00 00 00 00 	lea    0x0(%edi,%eiz,1),%edi
  while((n = read(fd, buf, sizeof(buf))) > 0){
     f30:	83 ec 04             	sub    $0x4,%esp
     f33:	89 55 d4             	mov    %edx,-0x2c(%ebp)
     f36:	6a 0a                	push   $0xa
     f38:	56                   	push   %esi
     f39:	ff 75 d0             	pushl  -0x30(%ebp)
     f3c:	e8 99 29 00 00       	call   38da <read>
     f41:	83 c4 10             	add    $0x10,%esp
     f44:	85 c0                	test   %eax,%eax
     f46:	7e 27                	jle    f6f <sharedfd+0x11f>
     f48:	89 f0                	mov    %esi,%eax
     f4a:	8b 55 d4             	mov    -0x2c(%ebp),%edx
     f4d:	eb 13                	jmp    f62 <sharedfd+0x112>
     f4f:	90                   	nop
        np++;
     f50:	80 f9 70             	cmp    $0x70,%cl
     f53:	0f 94 c1             	sete   %cl
     f56:	0f b6 c9             	movzbl %cl,%ecx
     f59:	01 cb                	add    %ecx,%ebx
     f5b:	83 c0 01             	add    $0x1,%eax
    for(i = 0; i < sizeof(buf); i++){
     f5e:	39 c7                	cmp    %eax,%edi
     f60:	74 ce                	je     f30 <sharedfd+0xe0>
      if(buf[i] == 'c')
     f62:	0f b6 08             	movzbl (%eax),%ecx
     f65:	80 f9 63             	cmp    $0x63,%cl
     f68:	75 e6                	jne    f50 <sharedfd+0x100>
        nc++;
     f6a:	83 c2 01             	add    $0x1,%edx
     f6d:	eb ec                	jmp    f5b <sharedfd+0x10b>
  close(fd);
     f6f:	83 ec 0c             	sub    $0xc,%esp
     f72:	ff 75 d0             	pushl  -0x30(%ebp)
     f75:	e8 70 29 00 00       	call   38ea <close>
  unlink("sharedfd");
     f7a:	c7 04 24 6b 41 00 00 	movl   $0x416b,(%esp)
     f81:	e8 8c 29 00 00       	call   3912 <unlink>
  if(nc == 10000 && np == 10000){
     f86:	8b 55 d4             	mov    -0x2c(%ebp),%edx
     f89:	83 c4 10             	add    $0x10,%esp
     f8c:	81 fa 10 27 00 00    	cmp    $0x2710,%edx
     f92:	75 5b                	jne    fef <sharedfd+0x19f>
     f94:	81 fb 10 27 00 00    	cmp    $0x2710,%ebx
     f9a:	75 53                	jne    fef <sharedfd+0x19f>
    printf(1, "sharedfd ok\n");
     f9c:	83 ec 08             	sub    $0x8,%esp
     f9f:	68 74 41 00 00       	push   $0x4174
     fa4:	6a 01                	push   $0x1
     fa6:	e8 65 2a 00 00       	call   3a10 <printf>
     fab:	83 c4 10             	add    $0x10,%esp
}
     fae:	8d 65 f4             	lea    -0xc(%ebp),%esp
     fb1:	5b                   	pop    %ebx
     fb2:	5e                   	pop    %esi
     fb3:	5f                   	pop    %edi
     fb4:	5d                   	pop    %ebp
     fb5:	c3                   	ret    
    printf(1, "fstests: cannot open sharedfd for writing");
     fb6:	83 ec 08             	sub    $0x8,%esp
     fb9:	68 30 4e 00 00       	push   $0x4e30
     fbe:	6a 01                	push   $0x1
     fc0:	e8 4b 2a 00 00       	call   3a10 <printf>
    return;
     fc5:	83 c4 10             	add    $0x10,%esp
}
     fc8:	8d 65 f4             	lea    -0xc(%ebp),%esp
     fcb:	5b                   	pop    %ebx
     fcc:	5e                   	pop    %esi
     fcd:	5f                   	pop    %edi
     fce:	5d                   	pop    %ebp
     fcf:	c3                   	ret    
    printf(1, "fstests: cannot open sharedfd for reading\n");
     fd0:	83 ec 08             	sub    $0x8,%esp
     fd3:	68 7c 4e 00 00       	push   $0x4e7c
     fd8:	6a 01                	push   $0x1
     fda:	e8 31 2a 00 00       	call   3a10 <printf>
    return;
     fdf:	83 c4 10             	add    $0x10,%esp
}
     fe2:	8d 65 f4             	lea    -0xc(%ebp),%esp
     fe5:	5b                   	pop    %ebx
     fe6:	5e                   	pop    %esi
     fe7:	5f                   	pop    %edi
     fe8:	5d                   	pop    %ebp
     fe9:	c3                   	ret    
    exit();
     fea:	e8 d3 28 00 00       	call   38c2 <exit>
    printf(1, "sharedfd oops %d %d\n", nc, np);
     fef:	53                   	push   %ebx
     ff0:	52                   	push   %edx
     ff1:	68 81 41 00 00       	push   $0x4181
     ff6:	6a 01                	push   $0x1
     ff8:	e8 13 2a 00 00       	call   3a10 <printf>
    exit();
     ffd:	e8 c0 28 00 00       	call   38c2 <exit>
    1002:	8d b4 26 00 00 00 00 	lea    0x0(%esi,%eiz,1),%esi
    1009:	8d bc 27 00 00 00 00 	lea    0x0(%edi,%eiz,1),%edi

00001010 <fourfiles>:
{
    1010:	55                   	push   %ebp
    1011:	89 e5                	mov    %esp,%ebp
    1013:	57                   	push   %edi
    1014:	56                   	push   %esi
    1015:	53                   	push   %ebx
  printf(1, "fourfiles test\n");
    1016:	be 96 41 00 00       	mov    $0x4196,%esi
  for(pi = 0; pi < 4; pi++){
    101b:	31 db                	xor    %ebx,%ebx
{
    101d:	83 ec 34             	sub    $0x34,%esp
  char *names[] = { "f0", "f1", "f2", "f3" };
    1020:	c7 45 d8 96 41 00 00 	movl   $0x4196,-0x28(%ebp)
    1027:	c7 45 dc df 42 00 00 	movl   $0x42df,-0x24(%ebp)
  printf(1, "fourfiles test\n");
    102e:	68 9c 41 00 00       	push   $0x419c
    1033:	6a 01                	push   $0x1
  char *names[] = { "f0", "f1", "f2", "f3" };
    1035:	c7 45 e0 e3 42 00 00 	movl   $0x42e3,-0x20(%ebp)
    103c:	c7 45 e4 99 41 00 00 	movl   $0x4199,-0x1c(%ebp)
  printf(1, "fourfiles test\n");
    1043:	e8 c8 29 00 00       	call   3a10 <printf>
    1048:	83 c4 10             	add    $0x10,%esp
    unlink(fname);
    104b:	83 ec 0c             	sub    $0xc,%esp
    104e:	56                   	push   %esi
    104f:	e8 be 28 00 00       	call   3912 <unlink>
    pid = fork();
    1054:	e8 61 28 00 00       	call   38ba <fork>
    if(pid < 0){
    1059:	83 c4 10             	add    $0x10,%esp
    105c:	85 c0                	test   %eax,%eax
    105e:	0f 88 83 01 00 00    	js     11e7 <fourfiles+0x1d7>
    if(pid == 0){
    1064:	0f 84 e3 00 00 00    	je     114d <fourfiles+0x13d>
  for(pi = 0; pi < 4; pi++){
    106a:	83 c3 01             	add    $0x1,%ebx
    106d:	83 fb 04             	cmp    $0x4,%ebx
    1070:	74 06                	je     1078 <fourfiles+0x68>
    1072:	8b 74 9d d8          	mov    -0x28(%ebp,%ebx,4),%esi
    1076:	eb d3                	jmp    104b <fourfiles+0x3b>
    wait();
    1078:	e8 4d 28 00 00       	call   38ca <wait>
    107d:	bf 30 00 00 00       	mov    $0x30,%edi
    1082:	e8 43 28 00 00       	call   38ca <wait>
    1087:	e8 3e 28 00 00       	call   38ca <wait>
    108c:	e8 39 28 00 00       	call   38ca <wait>
    1091:	c7 45 d4 96 41 00 00 	movl   $0x4196,-0x2c(%ebp)
    fd = open(fname, 0);
    1098:	83 ec 08             	sub    $0x8,%esp
    total = 0;
    109b:	31 db                	xor    %ebx,%ebx
    fd = open(fname, 0);
    109d:	6a 00                	push   $0x0
    109f:	ff 75 d4             	pushl  -0x2c(%ebp)
    10a2:	e8 5b 28 00 00       	call   3902 <open>
    while((n = read(fd, buf, sizeof(buf))) > 0){
    10a7:	83 c4 10             	add    $0x10,%esp
    fd = open(fname, 0);
    10aa:	89 c6                	mov    %eax,%esi
    10ac:	8d 74 26 00          	lea    0x0(%esi,%eiz,1),%esi
    while((n = read(fd, buf, sizeof(buf))) > 0){
    10b0:	83 ec 04             	sub    $0x4,%esp
    10b3:	68 00 20 00 00       	push   $0x2000
    10b8:	68 a0 85 00 00       	push   $0x85a0
    10bd:	56                   	push   %esi
    10be:	e8 17 28 00 00       	call   38da <read>
    10c3:	83 c4 10             	add    $0x10,%esp
    10c6:	85 c0                	test   %eax,%eax
    10c8:	7e 1c                	jle    10e6 <fourfiles+0xd6>
    10ca:	31 d2                	xor    %edx,%edx
    10cc:	8d 74 26 00          	lea    0x0(%esi,%eiz,1),%esi
        if(buf[j] != '0'+i){
    10d0:	0f be 8a a0 85 00 00 	movsbl 0x85a0(%edx),%ecx
    10d7:	39 cf                	cmp    %ecx,%edi
    10d9:	75 5e                	jne    1139 <fourfiles+0x129>
      for(j = 0; j < n; j++){
    10db:	83 c2 01             	add    $0x1,%edx
    10de:	39 d0                	cmp    %edx,%eax
    10e0:	75 ee                	jne    10d0 <fourfiles+0xc0>
      total += n;
    10e2:	01 c3                	add    %eax,%ebx
    10e4:	eb ca                	jmp    10b0 <fourfiles+0xa0>
    close(fd);
    10e6:	83 ec 0c             	sub    $0xc,%esp
    10e9:	56                   	push   %esi
    10ea:	e8 fb 27 00 00       	call   38ea <close>
    if(total != 12*500){
    10ef:	83 c4 10             	add    $0x10,%esp
    10f2:	81 fb 70 17 00 00    	cmp    $0x1770,%ebx
    10f8:	0f 85 d4 00 00 00    	jne    11d2 <fourfiles+0x1c2>
    unlink(fname);
    10fe:	83 ec 0c             	sub    $0xc,%esp
    1101:	ff 75 d4             	pushl  -0x2c(%ebp)
    1104:	83 c7 01             	add    $0x1,%edi
    1107:	e8 06 28 00 00       	call   3912 <unlink>
  for(i = 0; i < 2; i++){
    110c:	83 c4 10             	add    $0x10,%esp
    110f:	83 ff 32             	cmp    $0x32,%edi
    1112:	75 1a                	jne    112e <fourfiles+0x11e>
  printf(1, "fourfiles ok\n");
    1114:	83 ec 08             	sub    $0x8,%esp
    1117:	68 da 41 00 00       	push   $0x41da
    111c:	6a 01                	push   $0x1
    111e:	e8 ed 28 00 00       	call   3a10 <printf>
}
    1123:	83 c4 10             	add    $0x10,%esp
    1126:	8d 65 f4             	lea    -0xc(%ebp),%esp
    1129:	5b                   	pop    %ebx
    112a:	5e                   	pop    %esi
    112b:	5f                   	pop    %edi
    112c:	5d                   	pop    %ebp
    112d:	c3                   	ret    
    112e:	8b 45 dc             	mov    -0x24(%ebp),%eax
    1131:	89 45 d4             	mov    %eax,-0x2c(%ebp)
    1134:	e9 5f ff ff ff       	jmp    1098 <fourfiles+0x88>
          printf(1, "wrong char\n");
    1139:	83 ec 08             	sub    $0x8,%esp
    113c:	68 bd 41 00 00       	push   $0x41bd
    1141:	6a 01                	push   $0x1
    1143:	e8 c8 28 00 00       	call   3a10 <printf>
          exit();
    1148:	e8 75 27 00 00       	call   38c2 <exit>
      fd = open(fname, O_CREATE | O_RDWR);
    114d:	83 ec 08             	sub    $0x8,%esp
    1150:	68 02 02 00 00       	push   $0x202
    1155:	56                   	push   %esi
    1156:	e8 a7 27 00 00       	call   3902 <open>
      if(fd < 0){
    115b:	83 c4 10             	add    $0x10,%esp
    115e:	85 c0                	test   %eax,%eax
      fd = open(fname, O_CREATE | O_RDWR);
    1160:	89 c6                	mov    %eax,%esi
      if(fd < 0){
    1162:	78 5a                	js     11be <fourfiles+0x1ae>
      memset(buf, '0'+pi, 512);
    1164:	83 ec 04             	sub    $0x4,%esp
    1167:	83 c3 30             	add    $0x30,%ebx
    116a:	68 00 02 00 00       	push   $0x200
    116f:	53                   	push   %ebx
    1170:	bb 0c 00 00 00       	mov    $0xc,%ebx
    1175:	68 a0 85 00 00       	push   $0x85a0
    117a:	e8 b1 25 00 00       	call   3730 <memset>
    117f:	83 c4 10             	add    $0x10,%esp
        if((n = write(fd, buf, 500)) != 500){
    1182:	83 ec 04             	sub    $0x4,%esp
    1185:	68 f4 01 00 00       	push   $0x1f4
    118a:	68 a0 85 00 00       	push   $0x85a0
    118f:	56                   	push   %esi
    1190:	e8 4d 27 00 00       	call   38e2 <write>
    1195:	83 c4 10             	add    $0x10,%esp
    1198:	3d f4 01 00 00       	cmp    $0x1f4,%eax
    119d:	75 0a                	jne    11a9 <fourfiles+0x199>
      for(i = 0; i < 12; i++){
    119f:	83 eb 01             	sub    $0x1,%ebx
    11a2:	75 de                	jne    1182 <fourfiles+0x172>
      exit();
    11a4:	e8 19 27 00 00       	call   38c2 <exit>
          printf(1, "write failed %d\n", n);
    11a9:	83 ec 04             	sub    $0x4,%esp
    11ac:	50                   	push   %eax
    11ad:	68 ac 41 00 00       	push   $0x41ac
    11b2:	6a 01                	push   $0x1
    11b4:	e8 57 28 00 00       	call   3a10 <printf>
          exit();
    11b9:	e8 04 27 00 00       	call   38c2 <exit>
        printf(1, "create failed\n");
    11be:	83 ec 08             	sub    $0x8,%esp
    11c1:	68 37 44 00 00       	push   $0x4437
    11c6:	6a 01                	push   $0x1
    11c8:	e8 43 28 00 00       	call   3a10 <printf>
        exit();
    11cd:	e8 f0 26 00 00       	call   38c2 <exit>
      printf(1, "wrong length %d\n", total);
    11d2:	83 ec 04             	sub    $0x4,%esp
    11d5:	53                   	push   %ebx
    11d6:	68 c9 41 00 00       	push   $0x41c9
    11db:	6a 01                	push   $0x1
    11dd:	e8 2e 28 00 00       	call   3a10 <printf>
      exit();
    11e2:	e8 db 26 00 00       	call   38c2 <exit>
      printf(1, "fork failed\n");
    11e7:	83 ec 08             	sub    $0x8,%esp
    11ea:	68 71 4c 00 00       	push   $0x4c71
    11ef:	6a 01                	push   $0x1
    11f1:	e8 1a 28 00 00       	call   3a10 <printf>
      exit();
    11f6:	e8 c7 26 00 00       	call   38c2 <exit>
    11fb:	90                   	nop
    11fc:	8d 74 26 00          	lea    0x0(%esi,%eiz,1),%esi

00001200 <createdelete>:
{
    1200:	55                   	push   %ebp
    1201:	89 e5                	mov    %esp,%ebp
    1203:	57                   	push   %edi
    1204:	56                   	push   %esi
    1205:	53                   	push   %ebx
  for(pi = 0; pi < 4; pi++){
    1206:	31 db                	xor    %ebx,%ebx
{
    1208:	83 ec 44             	sub    $0x44,%esp
  printf(1, "createdelete test\n");
    120b:	68 e8 41 00 00       	push   $0x41e8
    1210:	6a 01                	push   $0x1
    1212:	e8 f9 27 00 00       	call   3a10 <printf>
    1217:	83 c4 10             	add    $0x10,%esp
    pid = fork();
    121a:	e8 9b 26 00 00       	call   38ba <fork>
    if(pid < 0){
    121f:	85 c0                	test   %eax,%eax
    1221:	0f 88 b7 01 00 00    	js     13de <createdelete+0x1de>
    if(pid == 0){
    1227:	0f 84 f6 00 00 00    	je     1323 <createdelete+0x123>
  for(pi = 0; pi < 4; pi++){
    122d:	83 c3 01             	add    $0x1,%ebx
    1230:	83 fb 04             	cmp    $0x4,%ebx
    1233:	75 e5                	jne    121a <createdelete+0x1a>
    1235:	8d 7d c8             	lea    -0x38(%ebp),%edi
  for(i = 0; i < N; i++){
    1238:	31 f6                	xor    %esi,%esi
    wait();
    123a:	e8 8b 26 00 00       	call   38ca <wait>
    123f:	e8 86 26 00 00       	call   38ca <wait>
    1244:	e8 81 26 00 00       	call   38ca <wait>
    1249:	e8 7c 26 00 00       	call   38ca <wait>
  name[0] = name[1] = name[2] = 0;
    124e:	c6 45 ca 00          	movb   $0x0,-0x36(%ebp)
    1252:	8d b6 00 00 00 00    	lea    0x0(%esi),%esi
    1258:	8d 46 30             	lea    0x30(%esi),%eax
    125b:	83 fe 09             	cmp    $0x9,%esi
      name[2] = '\0';
    125e:	bb 70 00 00 00       	mov    $0x70,%ebx
    1263:	0f 9f c2             	setg   %dl
    1266:	85 f6                	test   %esi,%esi
    1268:	88 45 c7             	mov    %al,-0x39(%ebp)
    126b:	0f 94 c0             	sete   %al
    126e:	09 c2                	or     %eax,%edx
      } else if((i >= 1 && i < N/2) && fd >= 0){
    1270:	8d 46 ff             	lea    -0x1(%esi),%eax
    1273:	88 55 c6             	mov    %dl,-0x3a(%ebp)
    1276:	89 45 c0             	mov    %eax,-0x40(%ebp)
      name[1] = '0' + i;
    1279:	0f b6 45 c7          	movzbl -0x39(%ebp),%eax
      fd = open(name, 0);
    127d:	83 ec 08             	sub    $0x8,%esp
      name[0] = 'p' + pi;
    1280:	88 5d c8             	mov    %bl,-0x38(%ebp)
      fd = open(name, 0);
    1283:	6a 00                	push   $0x0
    1285:	57                   	push   %edi
      name[1] = '0' + i;
    1286:	88 45 c9             	mov    %al,-0x37(%ebp)
      fd = open(name, 0);
    1289:	e8 74 26 00 00       	call   3902 <open>
      if((i == 0 || i >= N/2) && fd < 0){
    128e:	89 c1                	mov    %eax,%ecx
    1290:	83 c4 10             	add    $0x10,%esp
    1293:	c1 e9 1f             	shr    $0x1f,%ecx
    1296:	84 c9                	test   %cl,%cl
    1298:	74 0a                	je     12a4 <createdelete+0xa4>
    129a:	80 7d c6 00          	cmpb   $0x0,-0x3a(%ebp)
    129e:	0f 85 11 01 00 00    	jne    13b5 <createdelete+0x1b5>
      } else if((i >= 1 && i < N/2) && fd >= 0){
    12a4:	83 7d c0 08          	cmpl   $0x8,-0x40(%ebp)
    12a8:	0f 86 44 01 00 00    	jbe    13f2 <createdelete+0x1f2>
      if(fd >= 0)
    12ae:	85 c0                	test   %eax,%eax
    12b0:	78 0c                	js     12be <createdelete+0xbe>
        close(fd);
    12b2:	83 ec 0c             	sub    $0xc,%esp
    12b5:	50                   	push   %eax
    12b6:	e8 2f 26 00 00       	call   38ea <close>
    12bb:	83 c4 10             	add    $0x10,%esp
    12be:	83 c3 01             	add    $0x1,%ebx
    for(pi = 0; pi < 4; pi++){
    12c1:	80 fb 74             	cmp    $0x74,%bl
    12c4:	75 b3                	jne    1279 <createdelete+0x79>
  for(i = 0; i < N; i++){
    12c6:	83 c6 01             	add    $0x1,%esi
    12c9:	83 fe 14             	cmp    $0x14,%esi
    12cc:	75 8a                	jne    1258 <createdelete+0x58>
    12ce:	be 70 00 00 00       	mov    $0x70,%esi
    12d3:	90                   	nop
    12d4:	8d 74 26 00          	lea    0x0(%esi,%eiz,1),%esi
    12d8:	8d 46 c0             	lea    -0x40(%esi),%eax
    12db:	bb 04 00 00 00       	mov    $0x4,%ebx
    12e0:	88 45 c7             	mov    %al,-0x39(%ebp)
      name[0] = 'p' + i;
    12e3:	89 f0                	mov    %esi,%eax
      unlink(name);
    12e5:	83 ec 0c             	sub    $0xc,%esp
      name[0] = 'p' + i;
    12e8:	88 45 c8             	mov    %al,-0x38(%ebp)
      name[1] = '0' + i;
    12eb:	0f b6 45 c7          	movzbl -0x39(%ebp),%eax
      unlink(name);
    12ef:	57                   	push   %edi
      name[1] = '0' + i;
    12f0:	88 45 c9             	mov    %al,-0x37(%ebp)
      unlink(name);
    12f3:	e8 1a 26 00 00       	call   3912 <unlink>
    for(pi = 0; pi < 4; pi++){
    12f8:	83 c4 10             	add    $0x10,%esp
    12fb:	83 eb 01             	sub    $0x1,%ebx
    12fe:	75 e3                	jne    12e3 <createdelete+0xe3>
    1300:	83 c6 01             	add    $0x1,%esi
  for(i = 0; i < N; i++){
    1303:	89 f0                	mov    %esi,%eax
    1305:	3c 84                	cmp    $0x84,%al
    1307:	75 cf                	jne    12d8 <createdelete+0xd8>
  printf(1, "createdelete ok\n");
    1309:	83 ec 08             	sub    $0x8,%esp
    130c:	68 fb 41 00 00       	push   $0x41fb
    1311:	6a 01                	push   $0x1
    1313:	e8 f8 26 00 00       	call   3a10 <printf>
}
    1318:	83 c4 10             	add    $0x10,%esp
    131b:	8d 65 f4             	lea    -0xc(%ebp),%esp
    131e:	5b                   	pop    %ebx
    131f:	5e                   	pop    %esi
    1320:	5f                   	pop    %edi
    1321:	5d                   	pop    %ebp
    1322:	c3                   	ret    
      name[0] = 'p' + pi;
    1323:	83 c3 70             	add    $0x70,%ebx
      name[2] = '\0';
    1326:	c6 45 ca 00          	movb   $0x0,-0x36(%ebp)
    132a:	be 01 00 00 00       	mov    $0x1,%esi
      name[0] = 'p' + pi;
    132f:	88 5d c8             	mov    %bl,-0x38(%ebp)
    1332:	8d 7d c8             	lea    -0x38(%ebp),%edi
      name[2] = '\0';
    1335:	31 db                	xor    %ebx,%ebx
    1337:	eb 12                	jmp    134b <createdelete+0x14b>
    1339:	8d b4 26 00 00 00 00 	lea    0x0(%esi,%eiz,1),%esi
      for(i = 0; i < N; i++){
    1340:	83 fe 14             	cmp    $0x14,%esi
    1343:	74 6b                	je     13b0 <createdelete+0x1b0>
    1345:	83 c3 01             	add    $0x1,%ebx
    1348:	83 c6 01             	add    $0x1,%esi
        fd = open(name, O_CREATE | O_RDWR);
    134b:	83 ec 08             	sub    $0x8,%esp
        name[1] = '0' + i;
    134e:	8d 43 30             	lea    0x30(%ebx),%eax
        fd = open(name, O_CREATE | O_RDWR);
    1351:	68 02 02 00 00       	push   $0x202
    1356:	57                   	push   %edi
        name[1] = '0' + i;
    1357:	88 45 c9             	mov    %al,-0x37(%ebp)
        fd = open(name, O_CREATE | O_RDWR);
    135a:	e8 a3 25 00 00       	call   3902 <open>
        if(fd < 0){
    135f:	83 c4 10             	add    $0x10,%esp
    1362:	85 c0                	test   %eax,%eax
    1364:	78 64                	js     13ca <createdelete+0x1ca>
        close(fd);
    1366:	83 ec 0c             	sub    $0xc,%esp
    1369:	50                   	push   %eax
    136a:	e8 7b 25 00 00       	call   38ea <close>
        if(i > 0 && (i % 2 ) == 0){
    136f:	83 c4 10             	add    $0x10,%esp
    1372:	85 db                	test   %ebx,%ebx
    1374:	74 cf                	je     1345 <createdelete+0x145>
    1376:	f6 c3 01             	test   $0x1,%bl
    1379:	75 c5                	jne    1340 <createdelete+0x140>
          if(unlink(name) < 0){
    137b:	83 ec 0c             	sub    $0xc,%esp
          name[1] = '0' + (i / 2);
    137e:	89 d8                	mov    %ebx,%eax
    1380:	d1 f8                	sar    %eax
          if(unlink(name) < 0){
    1382:	57                   	push   %edi
          name[1] = '0' + (i / 2);
    1383:	83 c0 30             	add    $0x30,%eax
    1386:	88 45 c9             	mov    %al,-0x37(%ebp)
          if(unlink(name) < 0){
    1389:	e8 84 25 00 00       	call   3912 <unlink>
    138e:	83 c4 10             	add    $0x10,%esp
    1391:	85 c0                	test   %eax,%eax
    1393:	79 ab                	jns    1340 <createdelete+0x140>
            printf(1, "unlink failed\n");
    1395:	83 ec 08             	sub    $0x8,%esp
    1398:	68 e9 3d 00 00       	push   $0x3de9
    139d:	6a 01                	push   $0x1
    139f:	e8 6c 26 00 00       	call   3a10 <printf>
            exit();
    13a4:	e8 19 25 00 00       	call   38c2 <exit>
    13a9:	8d b4 26 00 00 00 00 	lea    0x0(%esi,%eiz,1),%esi
      exit();
    13b0:	e8 0d 25 00 00       	call   38c2 <exit>
        printf(1, "oops createdelete %s didn't exist\n", name);
    13b5:	83 ec 04             	sub    $0x4,%esp
    13b8:	57                   	push   %edi
    13b9:	68 a8 4e 00 00       	push   $0x4ea8
    13be:	6a 01                	push   $0x1
    13c0:	e8 4b 26 00 00       	call   3a10 <printf>
        exit();
    13c5:	e8 f8 24 00 00       	call   38c2 <exit>
          printf(1, "create failed\n");
    13ca:	83 ec 08             	sub    $0x8,%esp
    13cd:	68 37 44 00 00       	push   $0x4437
    13d2:	6a 01                	push   $0x1
    13d4:	e8 37 26 00 00       	call   3a10 <printf>
          exit();
    13d9:	e8 e4 24 00 00       	call   38c2 <exit>
      printf(1, "fork failed\n");
    13de:	83 ec 08             	sub    $0x8,%esp
    13e1:	68 71 4c 00 00       	push   $0x4c71
    13e6:	6a 01                	push   $0x1
    13e8:	e8 23 26 00 00       	call   3a10 <printf>
      exit();
    13ed:	e8 d0 24 00 00       	call   38c2 <exit>
      } else if((i >= 1 && i < N/2) && fd >= 0){
    13f2:	85 c0                	test   %eax,%eax
    13f4:	0f 88 c4 fe ff ff    	js     12be <createdelete+0xbe>
        printf(1, "oops createdelete %s did exist\n", name);
    13fa:	83 ec 04             	sub    $0x4,%esp
    13fd:	57                   	push   %edi
    13fe:	68 cc 4e 00 00       	push   $0x4ecc
    1403:	6a 01                	push   $0x1
    1405:	e8 06 26 00 00       	call   3a10 <printf>
        exit();
    140a:	e8 b3 24 00 00       	call   38c2 <exit>
    140f:	90                   	nop

00001410 <unlinkread>:
{
    1410:	55                   	push   %ebp
    1411:	89 e5                	mov    %esp,%ebp
    1413:	56                   	push   %esi
    1414:	53                   	push   %ebx
  printf(1, "unlinkread test\n");
    1415:	83 ec 08             	sub    $0x8,%esp
    1418:	68 0c 42 00 00       	push   $0x420c
    141d:	6a 01                	push   $0x1
    141f:	e8 ec 25 00 00       	call   3a10 <printf>
  fd = open("unlinkread", O_CREATE | O_RDWR);
    1424:	5b                   	pop    %ebx
    1425:	5e                   	pop    %esi
    1426:	68 02 02 00 00       	push   $0x202
    142b:	68 1d 42 00 00       	push   $0x421d
    1430:	e8 cd 24 00 00       	call   3902 <open>
  if(fd < 0){
    1435:	83 c4 10             	add    $0x10,%esp
    1438:	85 c0                	test   %eax,%eax
    143a:	0f 88 e6 00 00 00    	js     1526 <unlinkread+0x116>
  write(fd, "hello", 5);
    1440:	83 ec 04             	sub    $0x4,%esp
    1443:	89 c3                	mov    %eax,%ebx
    1445:	6a 05                	push   $0x5
    1447:	68 42 42 00 00       	push   $0x4242
    144c:	50                   	push   %eax
    144d:	e8 90 24 00 00       	call   38e2 <write>
  close(fd);
    1452:	89 1c 24             	mov    %ebx,(%esp)
    1455:	e8 90 24 00 00       	call   38ea <close>
  fd = open("unlinkread", O_RDWR);
    145a:	58                   	pop    %eax
    145b:	5a                   	pop    %edx
    145c:	6a 02                	push   $0x2
    145e:	68 1d 42 00 00       	push   $0x421d
    1463:	e8 9a 24 00 00       	call   3902 <open>
  if(fd < 0){
    1468:	83 c4 10             	add    $0x10,%esp
    146b:	85 c0                	test   %eax,%eax
  fd = open("unlinkread", O_RDWR);
    146d:	89 c3                	mov    %eax,%ebx
  if(fd < 0){
    146f:	0f 88 10 01 00 00    	js     1585 <unlinkread+0x175>
  if(unlink("unlinkread") != 0){
    1475:	83 ec 0c             	sub    $0xc,%esp
    1478:	68 1d 42 00 00       	push   $0x421d
    147d:	e8 90 24 00 00       	call   3912 <unlink>
    1482:	83 c4 10             	add    $0x10,%esp
    1485:	85 c0                	test   %eax,%eax
    1487:	0f 85 e5 00 00 00    	jne    1572 <unlinkread+0x162>
  fd1 = open("unlinkread", O_CREATE | O_RDWR);
    148d:	83 ec 08             	sub    $0x8,%esp
    1490:	68 02 02 00 00       	push   $0x202
    1495:	68 1d 42 00 00       	push   $0x421d
    149a:	e8 63 24 00 00       	call   3902 <open>
  write(fd1, "yyy", 3);
    149f:	83 c4 0c             	add    $0xc,%esp
  fd1 = open("unlinkread", O_CREATE | O_RDWR);
    14a2:	89 c6                	mov    %eax,%esi
  write(fd1, "yyy", 3);
    14a4:	6a 03                	push   $0x3
    14a6:	68 7a 42 00 00       	push   $0x427a
    14ab:	50                   	push   %eax
    14ac:	e8 31 24 00 00       	call   38e2 <write>
  close(fd1);
    14b1:	89 34 24             	mov    %esi,(%esp)
    14b4:	e8 31 24 00 00       	call   38ea <close>
  if(read(fd, buf, sizeof(buf)) != 5){
    14b9:	83 c4 0c             	add    $0xc,%esp
    14bc:	68 00 20 00 00       	push   $0x2000
    14c1:	68 a0 85 00 00       	push   $0x85a0
    14c6:	53                   	push   %ebx
    14c7:	e8 0e 24 00 00       	call   38da <read>
    14cc:	83 c4 10             	add    $0x10,%esp
    14cf:	83 f8 05             	cmp    $0x5,%eax
    14d2:	0f 85 87 00 00 00    	jne    155f <unlinkread+0x14f>
  if(buf[0] != 'h'){
    14d8:	80 3d a0 85 00 00 68 	cmpb   $0x68,0x85a0
    14df:	75 6b                	jne    154c <unlinkread+0x13c>
  if(write(fd, buf, 10) != 10){
    14e1:	83 ec 04             	sub    $0x4,%esp
    14e4:	6a 0a                	push   $0xa
    14e6:	68 a0 85 00 00       	push   $0x85a0
    14eb:	53                   	push   %ebx
    14ec:	e8 f1 23 00 00       	call   38e2 <write>
    14f1:	83 c4 10             	add    $0x10,%esp
    14f4:	83 f8 0a             	cmp    $0xa,%eax
    14f7:	75 40                	jne    1539 <unlinkread+0x129>
  close(fd);
    14f9:	83 ec 0c             	sub    $0xc,%esp
    14fc:	53                   	push   %ebx
    14fd:	e8 e8 23 00 00       	call   38ea <close>
  unlink("unlinkread");
    1502:	c7 04 24 1d 42 00 00 	movl   $0x421d,(%esp)
    1509:	e8 04 24 00 00       	call   3912 <unlink>
  printf(1, "unlinkread ok\n");
    150e:	58                   	pop    %eax
    150f:	5a                   	pop    %edx
    1510:	68 c5 42 00 00       	push   $0x42c5
    1515:	6a 01                	push   $0x1
    1517:	e8 f4 24 00 00       	call   3a10 <printf>
}
    151c:	83 c4 10             	add    $0x10,%esp
    151f:	8d 65 f8             	lea    -0x8(%ebp),%esp
    1522:	5b                   	pop    %ebx
    1523:	5e                   	pop    %esi
    1524:	5d                   	pop    %ebp
    1525:	c3                   	ret    
    printf(1, "create unlinkread failed\n");
    1526:	51                   	push   %ecx
    1527:	51                   	push   %ecx
    1528:	68 28 42 00 00       	push   $0x4228
    152d:	6a 01                	push   $0x1
    152f:	e8 dc 24 00 00       	call   3a10 <printf>
    exit();
    1534:	e8 89 23 00 00       	call   38c2 <exit>
    printf(1, "unlinkread write failed\n");
    1539:	51                   	push   %ecx
    153a:	51                   	push   %ecx
    153b:	68 ac 42 00 00       	push   $0x42ac
    1540:	6a 01                	push   $0x1
    1542:	e8 c9 24 00 00       	call   3a10 <printf>
    exit();
    1547:	e8 76 23 00 00       	call   38c2 <exit>
    printf(1, "unlinkread wrong data\n");
    154c:	53                   	push   %ebx
    154d:	53                   	push   %ebx
    154e:	68 95 42 00 00       	push   $0x4295
    1553:	6a 01                	push   $0x1
    1555:	e8 b6 24 00 00       	call   3a10 <printf>
    exit();
    155a:	e8 63 23 00 00       	call   38c2 <exit>
    printf(1, "unlinkread read failed");
    155f:	56                   	push   %esi
    1560:	56                   	push   %esi
    1561:	68 7e 42 00 00       	push   $0x427e
    1566:	6a 01                	push   $0x1
    1568:	e8 a3 24 00 00       	call   3a10 <printf>
    exit();
    156d:	e8 50 23 00 00       	call   38c2 <exit>
    printf(1, "unlink unlinkread failed\n");
    1572:	50                   	push   %eax
    1573:	50                   	push   %eax
    1574:	68 60 42 00 00       	push   $0x4260
    1579:	6a 01                	push   $0x1
    157b:	e8 90 24 00 00       	call   3a10 <printf>
    exit();
    1580:	e8 3d 23 00 00       	call   38c2 <exit>
    printf(1, "open unlinkread failed\n");
    1585:	50                   	push   %eax
    1586:	50                   	push   %eax
    1587:	68 48 42 00 00       	push   $0x4248
    158c:	6a 01                	push   $0x1
    158e:	e8 7d 24 00 00       	call   3a10 <printf>
    exit();
    1593:	e8 2a 23 00 00       	call   38c2 <exit>
    1598:	90                   	nop
    1599:	8d b4 26 00 00 00 00 	lea    0x0(%esi,%eiz,1),%esi

000015a0 <linktest>:
{
    15a0:	55                   	push   %ebp
    15a1:	89 e5                	mov    %esp,%ebp
    15a3:	53                   	push   %ebx
    15a4:	83 ec 0c             	sub    $0xc,%esp
  printf(1, "linktest\n");
    15a7:	68 d4 42 00 00       	push   $0x42d4
    15ac:	6a 01                	push   $0x1
    15ae:	e8 5d 24 00 00       	call   3a10 <printf>
  unlink("lf1");
    15b3:	c7 04 24 de 42 00 00 	movl   $0x42de,(%esp)
    15ba:	e8 53 23 00 00       	call   3912 <unlink>
  unlink("lf2");
    15bf:	c7 04 24 e2 42 00 00 	movl   $0x42e2,(%esp)
    15c6:	e8 47 23 00 00       	call   3912 <unlink>
  fd = open("lf1", O_CREATE|O_RDWR);
    15cb:	58                   	pop    %eax
    15cc:	5a                   	pop    %edx
    15cd:	68 02 02 00 00       	push   $0x202
    15d2:	68 de 42 00 00       	push   $0x42de
    15d7:	e8 26 23 00 00       	call   3902 <open>
  if(fd < 0){
    15dc:	83 c4 10             	add    $0x10,%esp
    15df:	85 c0                	test   %eax,%eax
    15e1:	0f 88 1e 01 00 00    	js     1705 <linktest+0x165>
  if(write(fd, "hello", 5) != 5){
    15e7:	83 ec 04             	sub    $0x4,%esp
    15ea:	89 c3                	mov    %eax,%ebx
    15ec:	6a 05                	push   $0x5
    15ee:	68 42 42 00 00       	push   $0x4242
    15f3:	50                   	push   %eax
    15f4:	e8 e9 22 00 00       	call   38e2 <write>
    15f9:	83 c4 10             	add    $0x10,%esp
    15fc:	83 f8 05             	cmp    $0x5,%eax
    15ff:	0f 85 98 01 00 00    	jne    179d <linktest+0x1fd>
  close(fd);
    1605:	83 ec 0c             	sub    $0xc,%esp
    1608:	53                   	push   %ebx
    1609:	e8 dc 22 00 00       	call   38ea <close>
  if(link("lf1", "lf2") < 0){
    160e:	5b                   	pop    %ebx
    160f:	58                   	pop    %eax
    1610:	68 e2 42 00 00       	push   $0x42e2
    1615:	68 de 42 00 00       	push   $0x42de
    161a:	e8 03 23 00 00       	call   3922 <link>
    161f:	83 c4 10             	add    $0x10,%esp
    1622:	85 c0                	test   %eax,%eax
    1624:	0f 88 60 01 00 00    	js     178a <linktest+0x1ea>
  unlink("lf1");
    162a:	83 ec 0c             	sub    $0xc,%esp
    162d:	68 de 42 00 00       	push   $0x42de
    1632:	e8 db 22 00 00       	call   3912 <unlink>
  if(open("lf1", 0) >= 0){
    1637:	58                   	pop    %eax
    1638:	5a                   	pop    %edx
    1639:	6a 00                	push   $0x0
    163b:	68 de 42 00 00       	push   $0x42de
    1640:	e8 bd 22 00 00       	call   3902 <open>
    1645:	83 c4 10             	add    $0x10,%esp
    1648:	85 c0                	test   %eax,%eax
    164a:	0f 89 27 01 00 00    	jns    1777 <linktest+0x1d7>
  fd = open("lf2", 0);
    1650:	83 ec 08             	sub    $0x8,%esp
    1653:	6a 00                	push   $0x0
    1655:	68 e2 42 00 00       	push   $0x42e2
    165a:	e8 a3 22 00 00       	call   3902 <open>
  if(fd < 0){
    165f:	83 c4 10             	add    $0x10,%esp
    1662:	85 c0                	test   %eax,%eax
  fd = open("lf2", 0);
    1664:	89 c3                	mov    %eax,%ebx
  if(fd < 0){
    1666:	0f 88 f8 00 00 00    	js     1764 <linktest+0x1c4>
  if(read(fd, buf, sizeof(buf)) != 5){
    166c:	83 ec 04             	sub    $0x4,%esp
    166f:	68 00 20 00 00       	push   $0x2000
    1674:	68 a0 85 00 00       	push   $0x85a0
    1679:	50                   	push   %eax
    167a:	e8 5b 22 00 00       	call   38da <read>
    167f:	83 c4 10             	add    $0x10,%esp
    1682:	83 f8 05             	cmp    $0x5,%eax
    1685:	0f 85 c6 00 00 00    	jne    1751 <linktest+0x1b1>
  close(fd);
    168b:	83 ec 0c             	sub    $0xc,%esp
    168e:	53                   	push   %ebx
    168f:	e8 56 22 00 00       	call   38ea <close>
  if(link("lf2", "lf2") >= 0){
    1694:	58                   	pop    %eax
    1695:	5a                   	pop    %edx
    1696:	68 e2 42 00 00       	push   $0x42e2
    169b:	68 e2 42 00 00       	push   $0x42e2
    16a0:	e8 7d 22 00 00       	call   3922 <link>
    16a5:	83 c4 10             	add    $0x10,%esp
    16a8:	85 c0                	test   %eax,%eax
    16aa:	0f 89 8e 00 00 00    	jns    173e <linktest+0x19e>
  unlink("lf2");
    16b0:	83 ec 0c             	sub    $0xc,%esp
    16b3:	68 e2 42 00 00       	push   $0x42e2
    16b8:	e8 55 22 00 00       	call   3912 <unlink>
  if(link("lf2", "lf1") >= 0){
    16bd:	59                   	pop    %ecx
    16be:	5b                   	pop    %ebx
    16bf:	68 de 42 00 00       	push   $0x42de
    16c4:	68 e2 42 00 00       	push   $0x42e2
    16c9:	e8 54 22 00 00       	call   3922 <link>
    16ce:	83 c4 10             	add    $0x10,%esp
    16d1:	85 c0                	test   %eax,%eax
    16d3:	79 56                	jns    172b <linktest+0x18b>
  if(link(".", "lf1") >= 0){
    16d5:	83 ec 08             	sub    $0x8,%esp
    16d8:	68 de 42 00 00       	push   $0x42de
    16dd:	68 a6 45 00 00       	push   $0x45a6
    16e2:	e8 3b 22 00 00       	call   3922 <link>
    16e7:	83 c4 10             	add    $0x10,%esp
    16ea:	85 c0                	test   %eax,%eax
    16ec:	79 2a                	jns    1718 <linktest+0x178>
  printf(1, "linktest ok\n");
    16ee:	83 ec 08             	sub    $0x8,%esp
    16f1:	68 7c 43 00 00       	push   $0x437c
    16f6:	6a 01                	push   $0x1
    16f8:	e8 13 23 00 00       	call   3a10 <printf>
}
    16fd:	83 c4 10             	add    $0x10,%esp
    1700:	8b 5d fc             	mov    -0x4(%ebp),%ebx
    1703:	c9                   	leave  
    1704:	c3                   	ret    
    printf(1, "create lf1 failed\n");
    1705:	50                   	push   %eax
    1706:	50                   	push   %eax
    1707:	68 e6 42 00 00       	push   $0x42e6
    170c:	6a 01                	push   $0x1
    170e:	e8 fd 22 00 00       	call   3a10 <printf>
    exit();
    1713:	e8 aa 21 00 00       	call   38c2 <exit>
    printf(1, "link . lf1 succeeded! oops\n");
    1718:	50                   	push   %eax
    1719:	50                   	push   %eax
    171a:	68 60 43 00 00       	push   $0x4360
    171f:	6a 01                	push   $0x1
    1721:	e8 ea 22 00 00       	call   3a10 <printf>
    exit();
    1726:	e8 97 21 00 00       	call   38c2 <exit>
    printf(1, "link non-existant succeeded! oops\n");
    172b:	52                   	push   %edx
    172c:	52                   	push   %edx
    172d:	68 14 4f 00 00       	push   $0x4f14
    1732:	6a 01                	push   $0x1
    1734:	e8 d7 22 00 00       	call   3a10 <printf>
    exit();
    1739:	e8 84 21 00 00       	call   38c2 <exit>
    printf(1, "link lf2 lf2 succeeded! oops\n");
    173e:	50                   	push   %eax
    173f:	50                   	push   %eax
    1740:	68 42 43 00 00       	push   $0x4342
    1745:	6a 01                	push   $0x1
    1747:	e8 c4 22 00 00       	call   3a10 <printf>
    exit();
    174c:	e8 71 21 00 00       	call   38c2 <exit>
    printf(1, "read lf2 failed\n");
    1751:	51                   	push   %ecx
    1752:	51                   	push   %ecx
    1753:	68 31 43 00 00       	push   $0x4331
    1758:	6a 01                	push   $0x1
    175a:	e8 b1 22 00 00       	call   3a10 <printf>
    exit();
    175f:	e8 5e 21 00 00       	call   38c2 <exit>
    printf(1, "open lf2 failed\n");
    1764:	53                   	push   %ebx
    1765:	53                   	push   %ebx
    1766:	68 20 43 00 00       	push   $0x4320
    176b:	6a 01                	push   $0x1
    176d:	e8 9e 22 00 00       	call   3a10 <printf>
    exit();
    1772:	e8 4b 21 00 00       	call   38c2 <exit>
    printf(1, "unlinked lf1 but it is still there!\n");
    1777:	50                   	push   %eax
    1778:	50                   	push   %eax
    1779:	68 ec 4e 00 00       	push   $0x4eec
    177e:	6a 01                	push   $0x1
    1780:	e8 8b 22 00 00       	call   3a10 <printf>
    exit();
    1785:	e8 38 21 00 00       	call   38c2 <exit>
    printf(1, "link lf1 lf2 failed\n");
    178a:	51                   	push   %ecx
    178b:	51                   	push   %ecx
    178c:	68 0b 43 00 00       	push   $0x430b
    1791:	6a 01                	push   $0x1
    1793:	e8 78 22 00 00       	call   3a10 <printf>
    exit();
    1798:	e8 25 21 00 00       	call   38c2 <exit>
    printf(1, "write lf1 failed\n");
    179d:	50                   	push   %eax
    179e:	50                   	push   %eax
    179f:	68 f9 42 00 00       	push   $0x42f9
    17a4:	6a 01                	push   $0x1
    17a6:	e8 65 22 00 00       	call   3a10 <printf>
    exit();
    17ab:	e8 12 21 00 00       	call   38c2 <exit>

000017b0 <concreate>:
{
    17b0:	55                   	push   %ebp
    17b1:	89 e5                	mov    %esp,%ebp
    17b3:	57                   	push   %edi
    17b4:	56                   	push   %esi
    17b5:	53                   	push   %ebx
  for(i = 0; i < 40; i++){
    17b6:	31 f6                	xor    %esi,%esi
    17b8:	8d 5d ad             	lea    -0x53(%ebp),%ebx
    if(pid && (i % 3) == 1){
    17bb:	bf 56 55 55 55       	mov    $0x55555556,%edi
{
    17c0:	83 ec 64             	sub    $0x64,%esp
  printf(1, "concreate test\n");
    17c3:	68 89 43 00 00       	push   $0x4389
    17c8:	6a 01                	push   $0x1
    17ca:	e8 41 22 00 00       	call   3a10 <printf>
  file[0] = 'C';
    17cf:	c6 45 ad 43          	movb   $0x43,-0x53(%ebp)
  file[2] = '\0';
    17d3:	c6 45 af 00          	movb   $0x0,-0x51(%ebp)
    17d7:	83 c4 10             	add    $0x10,%esp
    17da:	eb 51                	jmp    182d <concreate+0x7d>
    17dc:	8d 74 26 00          	lea    0x0(%esi,%eiz,1),%esi
    if(pid && (i % 3) == 1){
    17e0:	89 f0                	mov    %esi,%eax
    17e2:	89 f1                	mov    %esi,%ecx
    17e4:	f7 ef                	imul   %edi
    17e6:	89 f0                	mov    %esi,%eax
    17e8:	c1 f8 1f             	sar    $0x1f,%eax
    17eb:	29 c2                	sub    %eax,%edx
    17ed:	8d 04 52             	lea    (%edx,%edx,2),%eax
    17f0:	29 c1                	sub    %eax,%ecx
    17f2:	83 f9 01             	cmp    $0x1,%ecx
    17f5:	0f 84 b5 00 00 00    	je     18b0 <concreate+0x100>
      fd = open(file, O_CREATE | O_RDWR);
    17fb:	83 ec 08             	sub    $0x8,%esp
    17fe:	68 02 02 00 00       	push   $0x202
    1803:	53                   	push   %ebx
    1804:	e8 f9 20 00 00       	call   3902 <open>
      if(fd < 0){
    1809:	83 c4 10             	add    $0x10,%esp
    180c:	85 c0                	test   %eax,%eax
    180e:	78 6d                	js     187d <concreate+0xcd>
      close(fd);
    1810:	83 ec 0c             	sub    $0xc,%esp
  for(i = 0; i < 40; i++){
    1813:	83 c6 01             	add    $0x1,%esi
      close(fd);
    1816:	50                   	push   %eax
    1817:	e8 ce 20 00 00       	call   38ea <close>
    181c:	83 c4 10             	add    $0x10,%esp
      wait();
    181f:	e8 a6 20 00 00       	call   38ca <wait>
  for(i = 0; i < 40; i++){
    1824:	83 fe 28             	cmp    $0x28,%esi
    1827:	0f 84 ab 00 00 00    	je     18d8 <concreate+0x128>
    unlink(file);
    182d:	83 ec 0c             	sub    $0xc,%esp
    file[1] = '0' + i;
    1830:	8d 46 30             	lea    0x30(%esi),%eax
    unlink(file);
    1833:	53                   	push   %ebx
    file[1] = '0' + i;
    1834:	88 45 ae             	mov    %al,-0x52(%ebp)
    unlink(file);
    1837:	e8 d6 20 00 00       	call   3912 <unlink>
    pid = fork();
    183c:	e8 79 20 00 00       	call   38ba <fork>
    if(pid && (i % 3) == 1){
    1841:	83 c4 10             	add    $0x10,%esp
    1844:	85 c0                	test   %eax,%eax
    1846:	75 98                	jne    17e0 <concreate+0x30>
    } else if(pid == 0 && (i % 5) == 1){
    1848:	89 f0                	mov    %esi,%eax
    184a:	ba 67 66 66 66       	mov    $0x66666667,%edx
    184f:	f7 ea                	imul   %edx
    1851:	89 f0                	mov    %esi,%eax
    1853:	c1 f8 1f             	sar    $0x1f,%eax
    1856:	d1 fa                	sar    %edx
    1858:	29 c2                	sub    %eax,%edx
    185a:	8d 04 92             	lea    (%edx,%edx,4),%eax
    185d:	29 c6                	sub    %eax,%esi
    185f:	83 fe 01             	cmp    $0x1,%esi
    1862:	74 34                	je     1898 <concreate+0xe8>
      fd = open(file, O_CREATE | O_RDWR);
    1864:	83 ec 08             	sub    $0x8,%esp
    1867:	68 02 02 00 00       	push   $0x202
    186c:	53                   	push   %ebx
    186d:	e8 90 20 00 00       	call   3902 <open>
      if(fd < 0){
    1872:	83 c4 10             	add    $0x10,%esp
    1875:	85 c0                	test   %eax,%eax
    1877:	0f 89 32 02 00 00    	jns    1aaf <concreate+0x2ff>
        printf(1, "concreate create %s failed\n", file);
    187d:	83 ec 04             	sub    $0x4,%esp
    1880:	53                   	push   %ebx
    1881:	68 9c 43 00 00       	push   $0x439c
    1886:	6a 01                	push   $0x1
    1888:	e8 83 21 00 00       	call   3a10 <printf>
        exit();
    188d:	e8 30 20 00 00       	call   38c2 <exit>
    1892:	8d b6 00 00 00 00    	lea    0x0(%esi),%esi
      link("C0", file);
    1898:	83 ec 08             	sub    $0x8,%esp
    189b:	53                   	push   %ebx
    189c:	68 99 43 00 00       	push   $0x4399
    18a1:	e8 7c 20 00 00       	call   3922 <link>
    18a6:	83 c4 10             	add    $0x10,%esp
      exit();
    18a9:	e8 14 20 00 00       	call   38c2 <exit>
    18ae:	66 90                	xchg   %ax,%ax
      link("C0", file);
    18b0:	83 ec 08             	sub    $0x8,%esp
  for(i = 0; i < 40; i++){
    18b3:	83 c6 01             	add    $0x1,%esi
      link("C0", file);
    18b6:	53                   	push   %ebx
    18b7:	68 99 43 00 00       	push   $0x4399
    18bc:	e8 61 20 00 00       	call   3922 <link>
    18c1:	83 c4 10             	add    $0x10,%esp
      wait();
    18c4:	e8 01 20 00 00       	call   38ca <wait>
  for(i = 0; i < 40; i++){
    18c9:	83 fe 28             	cmp    $0x28,%esi
    18cc:	0f 85 5b ff ff ff    	jne    182d <concreate+0x7d>
    18d2:	8d b6 00 00 00 00    	lea    0x0(%esi),%esi
  memset(fa, 0, sizeof(fa));
    18d8:	8d 45 c0             	lea    -0x40(%ebp),%eax
    18db:	83 ec 04             	sub    $0x4,%esp
    18de:	8d 7d b0             	lea    -0x50(%ebp),%edi
    18e1:	6a 28                	push   $0x28
    18e3:	6a 00                	push   $0x0
    18e5:	50                   	push   %eax
    18e6:	e8 45 1e 00 00       	call   3730 <memset>
  fd = open(".", 0);
    18eb:	59                   	pop    %ecx
    18ec:	5e                   	pop    %esi
    18ed:	6a 00                	push   $0x0
    18ef:	68 a6 45 00 00       	push   $0x45a6
    18f4:	e8 09 20 00 00       	call   3902 <open>
  while(read(fd, &de, sizeof(de)) > 0){
    18f9:	83 c4 10             	add    $0x10,%esp
  fd = open(".", 0);
    18fc:	89 c6                	mov    %eax,%esi
  n = 0;
    18fe:	c7 45 a4 00 00 00 00 	movl   $0x0,-0x5c(%ebp)
    1905:	8d 76 00             	lea    0x0(%esi),%esi
  while(read(fd, &de, sizeof(de)) > 0){
    1908:	83 ec 04             	sub    $0x4,%esp
    190b:	6a 10                	push   $0x10
    190d:	57                   	push   %edi
    190e:	56                   	push   %esi
    190f:	e8 c6 1f 00 00       	call   38da <read>
    1914:	83 c4 10             	add    $0x10,%esp
    1917:	85 c0                	test   %eax,%eax
    1919:	7e 3d                	jle    1958 <concreate+0x1a8>
    if(de.inum == 0)
    191b:	66 83 7d b0 00       	cmpw   $0x0,-0x50(%ebp)
    1920:	74 e6                	je     1908 <concreate+0x158>
    if(de.name[0] == 'C' && de.name[2] == '\0'){
    1922:	80 7d b2 43          	cmpb   $0x43,-0x4e(%ebp)
    1926:	75 e0                	jne    1908 <concreate+0x158>
    1928:	80 7d b4 00          	cmpb   $0x0,-0x4c(%ebp)
    192c:	75 da                	jne    1908 <concreate+0x158>
      i = de.name[1] - '0';
    192e:	0f be 45 b3          	movsbl -0x4d(%ebp),%eax
    1932:	83 e8 30             	sub    $0x30,%eax
      if(i < 0 || i >= sizeof(fa)){
    1935:	83 f8 27             	cmp    $0x27,%eax
    1938:	0f 87 59 01 00 00    	ja     1a97 <concreate+0x2e7>
      if(fa[i]){
    193e:	80 7c 05 c0 00       	cmpb   $0x0,-0x40(%ebp,%eax,1)
    1943:	0f 85 36 01 00 00    	jne    1a7f <concreate+0x2cf>
      fa[i] = 1;
    1949:	c6 44 05 c0 01       	movb   $0x1,-0x40(%ebp,%eax,1)
      n++;
    194e:	83 45 a4 01          	addl   $0x1,-0x5c(%ebp)
    1952:	eb b4                	jmp    1908 <concreate+0x158>
    1954:	8d 74 26 00          	lea    0x0(%esi,%eiz,1),%esi
  close(fd);
    1958:	83 ec 0c             	sub    $0xc,%esp
    195b:	56                   	push   %esi
    195c:	e8 89 1f 00 00       	call   38ea <close>
  if(n != 40){
    1961:	83 c4 10             	add    $0x10,%esp
    1964:	83 7d a4 28          	cmpl   $0x28,-0x5c(%ebp)
    1968:	0f 85 fd 00 00 00    	jne    1a6b <concreate+0x2bb>
    196e:	31 f6                	xor    %esi,%esi
    1970:	eb 70                	jmp    19e2 <concreate+0x232>
    1972:	8d b6 00 00 00 00    	lea    0x0(%esi),%esi
       ((i % 3) == 1 && pid != 0)){
    1978:	83 fa 01             	cmp    $0x1,%edx
    197b:	0f 85 99 00 00 00    	jne    1a1a <concreate+0x26a>
      close(open(file, 0));
    1981:	83 ec 08             	sub    $0x8,%esp
    1984:	6a 00                	push   $0x0
    1986:	53                   	push   %ebx
    1987:	e8 76 1f 00 00       	call   3902 <open>
    198c:	89 04 24             	mov    %eax,(%esp)
    198f:	e8 56 1f 00 00       	call   38ea <close>
      close(open(file, 0));
    1994:	58                   	pop    %eax
    1995:	5a                   	pop    %edx
    1996:	6a 00                	push   $0x0
    1998:	53                   	push   %ebx
    1999:	e8 64 1f 00 00       	call   3902 <open>
    199e:	89 04 24             	mov    %eax,(%esp)
    19a1:	e8 44 1f 00 00       	call   38ea <close>
      close(open(file, 0));
    19a6:	59                   	pop    %ecx
    19a7:	58                   	pop    %eax
    19a8:	6a 00                	push   $0x0
    19aa:	53                   	push   %ebx
    19ab:	e8 52 1f 00 00       	call   3902 <open>
    19b0:	89 04 24             	mov    %eax,(%esp)
    19b3:	e8 32 1f 00 00       	call   38ea <close>
      close(open(file, 0));
    19b8:	58                   	pop    %eax
    19b9:	5a                   	pop    %edx
    19ba:	6a 00                	push   $0x0
    19bc:	53                   	push   %ebx
    19bd:	e8 40 1f 00 00       	call   3902 <open>
    19c2:	89 04 24             	mov    %eax,(%esp)
    19c5:	e8 20 1f 00 00       	call   38ea <close>
    19ca:	83 c4 10             	add    $0x10,%esp
    if(pid == 0)
    19cd:	85 ff                	test   %edi,%edi
    19cf:	0f 84 d4 fe ff ff    	je     18a9 <concreate+0xf9>
  for(i = 0; i < 40; i++){
    19d5:	83 c6 01             	add    $0x1,%esi
      wait();
    19d8:	e8 ed 1e 00 00       	call   38ca <wait>
  for(i = 0; i < 40; i++){
    19dd:	83 fe 28             	cmp    $0x28,%esi
    19e0:	74 5e                	je     1a40 <concreate+0x290>
    file[1] = '0' + i;
    19e2:	8d 46 30             	lea    0x30(%esi),%eax
    19e5:	88 45 ae             	mov    %al,-0x52(%ebp)
    pid = fork();
    19e8:	e8 cd 1e 00 00       	call   38ba <fork>
    if(pid < 0){
    19ed:	85 c0                	test   %eax,%eax
    pid = fork();
    19ef:	89 c7                	mov    %eax,%edi
    if(pid < 0){
    19f1:	78 64                	js     1a57 <concreate+0x2a7>
    if(((i % 3) == 0 && pid == 0) ||
    19f3:	b8 56 55 55 55       	mov    $0x55555556,%eax
    19f8:	f7 ee                	imul   %esi
    19fa:	89 f0                	mov    %esi,%eax
    19fc:	c1 f8 1f             	sar    $0x1f,%eax
    19ff:	29 c2                	sub    %eax,%edx
    1a01:	8d 04 52             	lea    (%edx,%edx,2),%eax
    1a04:	89 f2                	mov    %esi,%edx
    1a06:	29 c2                	sub    %eax,%edx
    1a08:	89 f8                	mov    %edi,%eax
    1a0a:	09 d0                	or     %edx,%eax
    1a0c:	0f 84 6f ff ff ff    	je     1981 <concreate+0x1d1>
       ((i % 3) == 1 && pid != 0)){
    1a12:	85 ff                	test   %edi,%edi
    1a14:	0f 85 5e ff ff ff    	jne    1978 <concreate+0x1c8>
      unlink(file);
    1a1a:	83 ec 0c             	sub    $0xc,%esp
    1a1d:	53                   	push   %ebx
    1a1e:	e8 ef 1e 00 00       	call   3912 <unlink>
      unlink(file);
    1a23:	89 1c 24             	mov    %ebx,(%esp)
    1a26:	e8 e7 1e 00 00       	call   3912 <unlink>
      unlink(file);
    1a2b:	89 1c 24             	mov    %ebx,(%esp)
    1a2e:	e8 df 1e 00 00       	call   3912 <unlink>
      unlink(file);
    1a33:	89 1c 24             	mov    %ebx,(%esp)
    1a36:	e8 d7 1e 00 00       	call   3912 <unlink>
    1a3b:	83 c4 10             	add    $0x10,%esp
    1a3e:	eb 8d                	jmp    19cd <concreate+0x21d>
  printf(1, "concreate ok\n");
    1a40:	83 ec 08             	sub    $0x8,%esp
    1a43:	68 ee 43 00 00       	push   $0x43ee
    1a48:	6a 01                	push   $0x1
    1a4a:	e8 c1 1f 00 00       	call   3a10 <printf>
}
    1a4f:	8d 65 f4             	lea    -0xc(%ebp),%esp
    1a52:	5b                   	pop    %ebx
    1a53:	5e                   	pop    %esi
    1a54:	5f                   	pop    %edi
    1a55:	5d                   	pop    %ebp
    1a56:	c3                   	ret    
      printf(1, "fork failed\n");
    1a57:	83 ec 08             	sub    $0x8,%esp
    1a5a:	68 71 4c 00 00       	push   $0x4c71
    1a5f:	6a 01                	push   $0x1
    1a61:	e8 aa 1f 00 00       	call   3a10 <printf>
      exit();
    1a66:	e8 57 1e 00 00       	call   38c2 <exit>
    printf(1, "concreate not enough files in directory listing\n");
    1a6b:	83 ec 08             	sub    $0x8,%esp
    1a6e:	68 38 4f 00 00       	push   $0x4f38
    1a73:	6a 01                	push   $0x1
    1a75:	e8 96 1f 00 00       	call   3a10 <printf>
    exit();
    1a7a:	e8 43 1e 00 00       	call   38c2 <exit>
        printf(1, "concreate duplicate file %s\n", de.name);
    1a7f:	8d 45 b2             	lea    -0x4e(%ebp),%eax
    1a82:	83 ec 04             	sub    $0x4,%esp
    1a85:	50                   	push   %eax
    1a86:	68 d1 43 00 00       	push   $0x43d1
    1a8b:	6a 01                	push   $0x1
    1a8d:	e8 7e 1f 00 00       	call   3a10 <printf>
        exit();
    1a92:	e8 2b 1e 00 00       	call   38c2 <exit>
        printf(1, "concreate weird file %s\n", de.name);
    1a97:	8d 45 b2             	lea    -0x4e(%ebp),%eax
    1a9a:	83 ec 04             	sub    $0x4,%esp
    1a9d:	50                   	push   %eax
    1a9e:	68 b8 43 00 00       	push   $0x43b8
    1aa3:	6a 01                	push   $0x1
    1aa5:	e8 66 1f 00 00       	call   3a10 <printf>
        exit();
    1aaa:	e8 13 1e 00 00       	call   38c2 <exit>
      close(fd);
    1aaf:	83 ec 0c             	sub    $0xc,%esp
    1ab2:	50                   	push   %eax
    1ab3:	e8 32 1e 00 00       	call   38ea <close>
    1ab8:	83 c4 10             	add    $0x10,%esp
    1abb:	e9 e9 fd ff ff       	jmp    18a9 <concreate+0xf9>

00001ac0 <linkunlink>:
{
    1ac0:	55                   	push   %ebp
    1ac1:	89 e5                	mov    %esp,%ebp
    1ac3:	57                   	push   %edi
    1ac4:	56                   	push   %esi
    1ac5:	53                   	push   %ebx
    1ac6:	83 ec 24             	sub    $0x24,%esp
  printf(1, "linkunlink test\n");
    1ac9:	68 fc 43 00 00       	push   $0x43fc
    1ace:	6a 01                	push   $0x1
    1ad0:	e8 3b 1f 00 00       	call   3a10 <printf>
  unlink("x");
    1ad5:	c7 04 24 89 46 00 00 	movl   $0x4689,(%esp)
    1adc:	e8 31 1e 00 00       	call   3912 <unlink>
  pid = fork();
    1ae1:	e8 d4 1d 00 00       	call   38ba <fork>
  if(pid < 0){
    1ae6:	83 c4 10             	add    $0x10,%esp
    1ae9:	85 c0                	test   %eax,%eax
  pid = fork();
    1aeb:	89 45 e4             	mov    %eax,-0x1c(%ebp)
  if(pid < 0){
    1aee:	0f 88 b6 00 00 00    	js     1baa <linkunlink+0xea>
  unsigned int x = (pid ? 1 : 97);
    1af4:	83 7d e4 01          	cmpl   $0x1,-0x1c(%ebp)
    1af8:	bb 64 00 00 00       	mov    $0x64,%ebx
    if((x % 3) == 0){
    1afd:	be ab aa aa aa       	mov    $0xaaaaaaab,%esi
  unsigned int x = (pid ? 1 : 97);
    1b02:	19 ff                	sbb    %edi,%edi
    1b04:	83 e7 60             	and    $0x60,%edi
    1b07:	83 c7 01             	add    $0x1,%edi
    1b0a:	eb 1e                	jmp    1b2a <linkunlink+0x6a>
    1b0c:	8d 74 26 00          	lea    0x0(%esi,%eiz,1),%esi
    } else if((x % 3) == 1){
    1b10:	83 fa 01             	cmp    $0x1,%edx
    1b13:	74 7b                	je     1b90 <linkunlink+0xd0>
      unlink("x");
    1b15:	83 ec 0c             	sub    $0xc,%esp
    1b18:	68 89 46 00 00       	push   $0x4689
    1b1d:	e8 f0 1d 00 00       	call   3912 <unlink>
    1b22:	83 c4 10             	add    $0x10,%esp
  for(i = 0; i < 100; i++){
    1b25:	83 eb 01             	sub    $0x1,%ebx
    1b28:	74 3d                	je     1b67 <linkunlink+0xa7>
    x = x * 1103515245 + 12345;
    1b2a:	69 cf 6d 4e c6 41    	imul   $0x41c64e6d,%edi,%ecx
    1b30:	8d b9 39 30 00 00    	lea    0x3039(%ecx),%edi
    if((x % 3) == 0){
    1b36:	89 f8                	mov    %edi,%eax
    1b38:	f7 e6                	mul    %esi
    1b3a:	d1 ea                	shr    %edx
    1b3c:	8d 04 52             	lea    (%edx,%edx,2),%eax
    1b3f:	89 fa                	mov    %edi,%edx
    1b41:	29 c2                	sub    %eax,%edx
    1b43:	75 cb                	jne    1b10 <linkunlink+0x50>
      close(open("x", O_RDWR | O_CREATE));
    1b45:	83 ec 08             	sub    $0x8,%esp
    1b48:	68 02 02 00 00       	push   $0x202
    1b4d:	68 89 46 00 00       	push   $0x4689
    1b52:	e8 ab 1d 00 00       	call   3902 <open>
    1b57:	89 04 24             	mov    %eax,(%esp)
    1b5a:	e8 8b 1d 00 00       	call   38ea <close>
    1b5f:	83 c4 10             	add    $0x10,%esp
  for(i = 0; i < 100; i++){
    1b62:	83 eb 01             	sub    $0x1,%ebx
    1b65:	75 c3                	jne    1b2a <linkunlink+0x6a>
  if(pid)
    1b67:	8b 45 e4             	mov    -0x1c(%ebp),%eax
    1b6a:	85 c0                	test   %eax,%eax
    1b6c:	74 50                	je     1bbe <linkunlink+0xfe>
    wait();
    1b6e:	e8 57 1d 00 00       	call   38ca <wait>
  printf(1, "linkunlink ok\n");
    1b73:	83 ec 08             	sub    $0x8,%esp
    1b76:	68 11 44 00 00       	push   $0x4411
    1b7b:	6a 01                	push   $0x1
    1b7d:	e8 8e 1e 00 00       	call   3a10 <printf>
}
    1b82:	8d 65 f4             	lea    -0xc(%ebp),%esp
    1b85:	5b                   	pop    %ebx
    1b86:	5e                   	pop    %esi
    1b87:	5f                   	pop    %edi
    1b88:	5d                   	pop    %ebp
    1b89:	c3                   	ret    
    1b8a:	8d b6 00 00 00 00    	lea    0x0(%esi),%esi
      link("cat", "x");
    1b90:	83 ec 08             	sub    $0x8,%esp
    1b93:	68 89 46 00 00       	push   $0x4689
    1b98:	68 0d 44 00 00       	push   $0x440d
    1b9d:	e8 80 1d 00 00       	call   3922 <link>
    1ba2:	83 c4 10             	add    $0x10,%esp
    1ba5:	e9 7b ff ff ff       	jmp    1b25 <linkunlink+0x65>
    printf(1, "fork failed\n");
    1baa:	83 ec 08             	sub    $0x8,%esp
    1bad:	68 71 4c 00 00       	push   $0x4c71
    1bb2:	6a 01                	push   $0x1
    1bb4:	e8 57 1e 00 00       	call   3a10 <printf>
    exit();
    1bb9:	e8 04 1d 00 00       	call   38c2 <exit>
    exit();
    1bbe:	e8 ff 1c 00 00       	call   38c2 <exit>
    1bc3:	8d b6 00 00 00 00    	lea    0x0(%esi),%esi
    1bc9:	8d bc 27 00 00 00 00 	lea    0x0(%edi,%eiz,1),%edi

00001bd0 <bigdir>:
{
    1bd0:	55                   	push   %ebp
    1bd1:	89 e5                	mov    %esp,%ebp
    1bd3:	57                   	push   %edi
    1bd4:	56                   	push   %esi
    1bd5:	53                   	push   %ebx
    1bd6:	83 ec 24             	sub    $0x24,%esp
  printf(1, "bigdir test\n");
    1bd9:	68 20 44 00 00       	push   $0x4420
    1bde:	6a 01                	push   $0x1
    1be0:	e8 2b 1e 00 00       	call   3a10 <printf>
  unlink("bd");
    1be5:	c7 04 24 2d 44 00 00 	movl   $0x442d,(%esp)
    1bec:	e8 21 1d 00 00       	call   3912 <unlink>
  fd = open("bd", O_CREATE);
    1bf1:	58                   	pop    %eax
    1bf2:	5a                   	pop    %edx
    1bf3:	68 00 02 00 00       	push   $0x200
    1bf8:	68 2d 44 00 00       	push   $0x442d
    1bfd:	e8 00 1d 00 00       	call   3902 <open>
  if(fd < 0){
    1c02:	83 c4 10             	add    $0x10,%esp
    1c05:	85 c0                	test   %eax,%eax
    1c07:	0f 88 de 00 00 00    	js     1ceb <bigdir+0x11b>
  close(fd);
    1c0d:	83 ec 0c             	sub    $0xc,%esp
    1c10:	8d 7d de             	lea    -0x22(%ebp),%edi
  for(i = 0; i < 500; i++){
    1c13:	31 f6                	xor    %esi,%esi
  close(fd);
    1c15:	50                   	push   %eax
    1c16:	e8 cf 1c 00 00       	call   38ea <close>
    1c1b:	83 c4 10             	add    $0x10,%esp
    1c1e:	66 90                	xchg   %ax,%ax
    name[1] = '0' + (i / 64);
    1c20:	89 f0                	mov    %esi,%eax
    if(link("bd", name) != 0){
    1c22:	83 ec 08             	sub    $0x8,%esp
    name[0] = 'x';
    1c25:	c6 45 de 78          	movb   $0x78,-0x22(%ebp)
    name[1] = '0' + (i / 64);
    1c29:	c1 f8 06             	sar    $0x6,%eax
    if(link("bd", name) != 0){
    1c2c:	57                   	push   %edi
    1c2d:	68 2d 44 00 00       	push   $0x442d
    name[1] = '0' + (i / 64);
    1c32:	83 c0 30             	add    $0x30,%eax
    name[3] = '\0';
    1c35:	c6 45 e1 00          	movb   $0x0,-0x1f(%ebp)
    name[1] = '0' + (i / 64);
    1c39:	88 45 df             	mov    %al,-0x21(%ebp)
    name[2] = '0' + (i % 64);
    1c3c:	89 f0                	mov    %esi,%eax
    1c3e:	83 e0 3f             	and    $0x3f,%eax
    1c41:	83 c0 30             	add    $0x30,%eax
    1c44:	88 45 e0             	mov    %al,-0x20(%ebp)
    if(link("bd", name) != 0){
    1c47:	e8 d6 1c 00 00       	call   3922 <link>
    1c4c:	83 c4 10             	add    $0x10,%esp
    1c4f:	85 c0                	test   %eax,%eax
    1c51:	89 c3                	mov    %eax,%ebx
    1c53:	75 6e                	jne    1cc3 <bigdir+0xf3>
  for(i = 0; i < 500; i++){
    1c55:	83 c6 01             	add    $0x1,%esi
    1c58:	81 fe f4 01 00 00    	cmp    $0x1f4,%esi
    1c5e:	75 c0                	jne    1c20 <bigdir+0x50>
  unlink("bd");
    1c60:	83 ec 0c             	sub    $0xc,%esp
    1c63:	68 2d 44 00 00       	push   $0x442d
    1c68:	e8 a5 1c 00 00       	call   3912 <unlink>
    1c6d:	83 c4 10             	add    $0x10,%esp
    name[1] = '0' + (i / 64);
    1c70:	89 d8                	mov    %ebx,%eax
    if(unlink(name) != 0){
    1c72:	83 ec 0c             	sub    $0xc,%esp
    name[0] = 'x';
    1c75:	c6 45 de 78          	movb   $0x78,-0x22(%ebp)
    name[1] = '0' + (i / 64);
    1c79:	c1 f8 06             	sar    $0x6,%eax
    if(unlink(name) != 0){
    1c7c:	57                   	push   %edi
    name[3] = '\0';
    1c7d:	c6 45 e1 00          	movb   $0x0,-0x1f(%ebp)
    name[1] = '0' + (i / 64);
    1c81:	83 c0 30             	add    $0x30,%eax
    1c84:	88 45 df             	mov    %al,-0x21(%ebp)
    name[2] = '0' + (i % 64);
    1c87:	89 d8                	mov    %ebx,%eax
    1c89:	83 e0 3f             	and    $0x3f,%eax
    1c8c:	83 c0 30             	add    $0x30,%eax
    1c8f:	88 45 e0             	mov    %al,-0x20(%ebp)
    if(unlink(name) != 0){
    1c92:	e8 7b 1c 00 00       	call   3912 <unlink>
    1c97:	83 c4 10             	add    $0x10,%esp
    1c9a:	85 c0                	test   %eax,%eax
    1c9c:	75 39                	jne    1cd7 <bigdir+0x107>
  for(i = 0; i < 500; i++){
    1c9e:	83 c3 01             	add    $0x1,%ebx
    1ca1:	81 fb f4 01 00 00    	cmp    $0x1f4,%ebx
    1ca7:	75 c7                	jne    1c70 <bigdir+0xa0>
  printf(1, "bigdir ok\n");
    1ca9:	83 ec 08             	sub    $0x8,%esp
    1cac:	68 6f 44 00 00       	push   $0x446f
    1cb1:	6a 01                	push   $0x1
    1cb3:	e8 58 1d 00 00       	call   3a10 <printf>
}
    1cb8:	83 c4 10             	add    $0x10,%esp
    1cbb:	8d 65 f4             	lea    -0xc(%ebp),%esp
    1cbe:	5b                   	pop    %ebx
    1cbf:	5e                   	pop    %esi
    1cc0:	5f                   	pop    %edi
    1cc1:	5d                   	pop    %ebp
    1cc2:	c3                   	ret    
      printf(1, "bigdir link failed\n");
    1cc3:	83 ec 08             	sub    $0x8,%esp
    1cc6:	68 46 44 00 00       	push   $0x4446
    1ccb:	6a 01                	push   $0x1
    1ccd:	e8 3e 1d 00 00       	call   3a10 <printf>
      exit();
    1cd2:	e8 eb 1b 00 00       	call   38c2 <exit>
      printf(1, "bigdir unlink failed");
    1cd7:	83 ec 08             	sub    $0x8,%esp
    1cda:	68 5a 44 00 00       	push   $0x445a
    1cdf:	6a 01                	push   $0x1
    1ce1:	e8 2a 1d 00 00       	call   3a10 <printf>
      exit();
    1ce6:	e8 d7 1b 00 00       	call   38c2 <exit>
    printf(1, "bigdir create failed\n");
    1ceb:	83 ec 08             	sub    $0x8,%esp
    1cee:	68 30 44 00 00       	push   $0x4430
    1cf3:	6a 01                	push   $0x1
    1cf5:	e8 16 1d 00 00       	call   3a10 <printf>
    exit();
    1cfa:	e8 c3 1b 00 00       	call   38c2 <exit>
    1cff:	90                   	nop

00001d00 <subdir>:
{
    1d00:	55                   	push   %ebp
    1d01:	89 e5                	mov    %esp,%ebp
    1d03:	53                   	push   %ebx
    1d04:	83 ec 0c             	sub    $0xc,%esp
  printf(1, "subdir test\n");
    1d07:	68 7a 44 00 00       	push   $0x447a
    1d0c:	6a 01                	push   $0x1
    1d0e:	e8 fd 1c 00 00       	call   3a10 <printf>
  unlink("ff");
    1d13:	c7 04 24 03 45 00 00 	movl   $0x4503,(%esp)
    1d1a:	e8 f3 1b 00 00       	call   3912 <unlink>
  if(mkdir("dd") != 0){
    1d1f:	c7 04 24 a0 45 00 00 	movl   $0x45a0,(%esp)
    1d26:	e8 ff 1b 00 00       	call   392a <mkdir>
    1d2b:	83 c4 10             	add    $0x10,%esp
    1d2e:	85 c0                	test   %eax,%eax
    1d30:	0f 85 b3 05 00 00    	jne    22e9 <subdir+0x5e9>
  fd = open("dd/ff", O_CREATE | O_RDWR);
    1d36:	83 ec 08             	sub    $0x8,%esp
    1d39:	68 02 02 00 00       	push   $0x202
    1d3e:	68 d9 44 00 00       	push   $0x44d9
    1d43:	e8 ba 1b 00 00       	call   3902 <open>
  if(fd < 0){
    1d48:	83 c4 10             	add    $0x10,%esp
    1d4b:	85 c0                	test   %eax,%eax
  fd = open("dd/ff", O_CREATE | O_RDWR);
    1d4d:	89 c3                	mov    %eax,%ebx
  if(fd < 0){
    1d4f:	0f 88 81 05 00 00    	js     22d6 <subdir+0x5d6>
  write(fd, "ff", 2);
    1d55:	83 ec 04             	sub    $0x4,%esp
    1d58:	6a 02                	push   $0x2
    1d5a:	68 03 45 00 00       	push   $0x4503
    1d5f:	50                   	push   %eax
    1d60:	e8 7d 1b 00 00       	call   38e2 <write>
  close(fd);
    1d65:	89 1c 24             	mov    %ebx,(%esp)
    1d68:	e8 7d 1b 00 00       	call   38ea <close>
  if(unlink("dd") >= 0){
    1d6d:	c7 04 24 a0 45 00 00 	movl   $0x45a0,(%esp)
    1d74:	e8 99 1b 00 00       	call   3912 <unlink>
    1d79:	83 c4 10             	add    $0x10,%esp
    1d7c:	85 c0                	test   %eax,%eax
    1d7e:	0f 89 3f 05 00 00    	jns    22c3 <subdir+0x5c3>
  if(mkdir("/dd/dd") != 0){
    1d84:	83 ec 0c             	sub    $0xc,%esp
    1d87:	68 b4 44 00 00       	push   $0x44b4
    1d8c:	e8 99 1b 00 00       	call   392a <mkdir>
    1d91:	83 c4 10             	add    $0x10,%esp
    1d94:	85 c0                	test   %eax,%eax
    1d96:	0f 85 14 05 00 00    	jne    22b0 <subdir+0x5b0>
  fd = open("dd/dd/ff", O_CREATE | O_RDWR);
    1d9c:	83 ec 08             	sub    $0x8,%esp
    1d9f:	68 02 02 00 00       	push   $0x202
    1da4:	68 d6 44 00 00       	push   $0x44d6
    1da9:	e8 54 1b 00 00       	call   3902 <open>
  if(fd < 0){
    1dae:	83 c4 10             	add    $0x10,%esp
    1db1:	85 c0                	test   %eax,%eax
  fd = open("dd/dd/ff", O_CREATE | O_RDWR);
    1db3:	89 c3                	mov    %eax,%ebx
  if(fd < 0){
    1db5:	0f 88 24 04 00 00    	js     21df <subdir+0x4df>
  write(fd, "FF", 2);
    1dbb:	83 ec 04             	sub    $0x4,%esp
    1dbe:	6a 02                	push   $0x2
    1dc0:	68 f7 44 00 00       	push   $0x44f7
    1dc5:	50                   	push   %eax
    1dc6:	e8 17 1b 00 00       	call   38e2 <write>
  close(fd);
    1dcb:	89 1c 24             	mov    %ebx,(%esp)
    1dce:	e8 17 1b 00 00       	call   38ea <close>
  fd = open("dd/dd/../ff", 0);
    1dd3:	58                   	pop    %eax
    1dd4:	5a                   	pop    %edx
    1dd5:	6a 00                	push   $0x0
    1dd7:	68 fa 44 00 00       	push   $0x44fa
    1ddc:	e8 21 1b 00 00       	call   3902 <open>
  if(fd < 0){
    1de1:	83 c4 10             	add    $0x10,%esp
    1de4:	85 c0                	test   %eax,%eax
  fd = open("dd/dd/../ff", 0);
    1de6:	89 c3                	mov    %eax,%ebx
  if(fd < 0){
    1de8:	0f 88 de 03 00 00    	js     21cc <subdir+0x4cc>
  cc = read(fd, buf, sizeof(buf));
    1dee:	83 ec 04             	sub    $0x4,%esp
    1df1:	68 00 20 00 00       	push   $0x2000
    1df6:	68 a0 85 00 00       	push   $0x85a0
    1dfb:	50                   	push   %eax
    1dfc:	e8 d9 1a 00 00       	call   38da <read>
  if(cc != 2 || buf[0] != 'f'){
    1e01:	83 c4 10             	add    $0x10,%esp
    1e04:	83 f8 02             	cmp    $0x2,%eax
    1e07:	0f 85 3a 03 00 00    	jne    2147 <subdir+0x447>
    1e0d:	80 3d a0 85 00 00 66 	cmpb   $0x66,0x85a0
    1e14:	0f 85 2d 03 00 00    	jne    2147 <subdir+0x447>
  close(fd);
    1e1a:	83 ec 0c             	sub    $0xc,%esp
    1e1d:	53                   	push   %ebx
    1e1e:	e8 c7 1a 00 00       	call   38ea <close>
  if(link("dd/dd/ff", "dd/dd/ffff") != 0){
    1e23:	5b                   	pop    %ebx
    1e24:	58                   	pop    %eax
    1e25:	68 3a 45 00 00       	push   $0x453a
    1e2a:	68 d6 44 00 00       	push   $0x44d6
    1e2f:	e8 ee 1a 00 00       	call   3922 <link>
    1e34:	83 c4 10             	add    $0x10,%esp
    1e37:	85 c0                	test   %eax,%eax
    1e39:	0f 85 c6 03 00 00    	jne    2205 <subdir+0x505>
  if(unlink("dd/dd/ff") != 0){
    1e3f:	83 ec 0c             	sub    $0xc,%esp
    1e42:	68 d6 44 00 00       	push   $0x44d6
    1e47:	e8 c6 1a 00 00       	call   3912 <unlink>
    1e4c:	83 c4 10             	add    $0x10,%esp
    1e4f:	85 c0                	test   %eax,%eax
    1e51:	0f 85 16 03 00 00    	jne    216d <subdir+0x46d>
  if(open("dd/dd/ff", O_RDONLY) >= 0){
    1e57:	83 ec 08             	sub    $0x8,%esp
    1e5a:	6a 00                	push   $0x0
    1e5c:	68 d6 44 00 00       	push   $0x44d6
    1e61:	e8 9c 1a 00 00       	call   3902 <open>
    1e66:	83 c4 10             	add    $0x10,%esp
    1e69:	85 c0                	test   %eax,%eax
    1e6b:	0f 89 2c 04 00 00    	jns    229d <subdir+0x59d>
  if(chdir("dd") != 0){
    1e71:	83 ec 0c             	sub    $0xc,%esp
    1e74:	68 a0 45 00 00       	push   $0x45a0
    1e79:	e8 b4 1a 00 00       	call   3932 <chdir>
    1e7e:	83 c4 10             	add    $0x10,%esp
    1e81:	85 c0                	test   %eax,%eax
    1e83:	0f 85 01 04 00 00    	jne    228a <subdir+0x58a>
  if(chdir("dd/../../dd") != 0){
    1e89:	83 ec 0c             	sub    $0xc,%esp
    1e8c:	68 6e 45 00 00       	push   $0x456e
    1e91:	e8 9c 1a 00 00       	call   3932 <chdir>
    1e96:	83 c4 10             	add    $0x10,%esp
    1e99:	85 c0                	test   %eax,%eax
    1e9b:	0f 85 b9 02 00 00    	jne    215a <subdir+0x45a>
  if(chdir("dd/../../../dd") != 0){
    1ea1:	83 ec 0c             	sub    $0xc,%esp
    1ea4:	68 94 45 00 00       	push   $0x4594
    1ea9:	e8 84 1a 00 00       	call   3932 <chdir>
    1eae:	83 c4 10             	add    $0x10,%esp
    1eb1:	85 c0                	test   %eax,%eax
    1eb3:	0f 85 a1 02 00 00    	jne    215a <subdir+0x45a>
  if(chdir("./..") != 0){
    1eb9:	83 ec 0c             	sub    $0xc,%esp
    1ebc:	68 a3 45 00 00       	push   $0x45a3
    1ec1:	e8 6c 1a 00 00       	call   3932 <chdir>
    1ec6:	83 c4 10             	add    $0x10,%esp
    1ec9:	85 c0                	test   %eax,%eax
    1ecb:	0f 85 21 03 00 00    	jne    21f2 <subdir+0x4f2>
  fd = open("dd/dd/ffff", 0);
    1ed1:	83 ec 08             	sub    $0x8,%esp
    1ed4:	6a 00                	push   $0x0
    1ed6:	68 3a 45 00 00       	push   $0x453a
    1edb:	e8 22 1a 00 00       	call   3902 <open>
  if(fd < 0){
    1ee0:	83 c4 10             	add    $0x10,%esp
    1ee3:	85 c0                	test   %eax,%eax
  fd = open("dd/dd/ffff", 0);
    1ee5:	89 c3                	mov    %eax,%ebx
  if(fd < 0){
    1ee7:	0f 88 e0 04 00 00    	js     23cd <subdir+0x6cd>
  if(read(fd, buf, sizeof(buf)) != 2){
    1eed:	83 ec 04             	sub    $0x4,%esp
    1ef0:	68 00 20 00 00       	push   $0x2000
    1ef5:	68 a0 85 00 00       	push   $0x85a0
    1efa:	50                   	push   %eax
    1efb:	e8 da 19 00 00       	call   38da <read>
    1f00:	83 c4 10             	add    $0x10,%esp
    1f03:	83 f8 02             	cmp    $0x2,%eax
    1f06:	0f 85 ae 04 00 00    	jne    23ba <subdir+0x6ba>
  close(fd);
    1f0c:	83 ec 0c             	sub    $0xc,%esp
    1f0f:	53                   	push   %ebx
    1f10:	e8 d5 19 00 00       	call   38ea <close>
  if(open("dd/dd/ff", O_RDONLY) >= 0){
    1f15:	59                   	pop    %ecx
    1f16:	5b                   	pop    %ebx
    1f17:	6a 00                	push   $0x0
    1f19:	68 d6 44 00 00       	push   $0x44d6
    1f1e:	e8 df 19 00 00       	call   3902 <open>
    1f23:	83 c4 10             	add    $0x10,%esp
    1f26:	85 c0                	test   %eax,%eax
    1f28:	0f 89 65 02 00 00    	jns    2193 <subdir+0x493>
  if(open("dd/ff/ff", O_CREATE|O_RDWR) >= 0){
    1f2e:	83 ec 08             	sub    $0x8,%esp
    1f31:	68 02 02 00 00       	push   $0x202
    1f36:	68 ee 45 00 00       	push   $0x45ee
    1f3b:	e8 c2 19 00 00       	call   3902 <open>
    1f40:	83 c4 10             	add    $0x10,%esp
    1f43:	85 c0                	test   %eax,%eax
    1f45:	0f 89 35 02 00 00    	jns    2180 <subdir+0x480>
  if(open("dd/xx/ff", O_CREATE|O_RDWR) >= 0){
    1f4b:	83 ec 08             	sub    $0x8,%esp
    1f4e:	68 02 02 00 00       	push   $0x202
    1f53:	68 13 46 00 00       	push   $0x4613
    1f58:	e8 a5 19 00 00       	call   3902 <open>
    1f5d:	83 c4 10             	add    $0x10,%esp
    1f60:	85 c0                	test   %eax,%eax
    1f62:	0f 89 0f 03 00 00    	jns    2277 <subdir+0x577>
  if(open("dd", O_CREATE) >= 0){
    1f68:	83 ec 08             	sub    $0x8,%esp
    1f6b:	68 00 02 00 00       	push   $0x200
    1f70:	68 a0 45 00 00       	push   $0x45a0
    1f75:	e8 88 19 00 00       	call   3902 <open>
    1f7a:	83 c4 10             	add    $0x10,%esp
    1f7d:	85 c0                	test   %eax,%eax
    1f7f:	0f 89 df 02 00 00    	jns    2264 <subdir+0x564>
  if(open("dd", O_RDWR) >= 0){
    1f85:	83 ec 08             	sub    $0x8,%esp
    1f88:	6a 02                	push   $0x2
    1f8a:	68 a0 45 00 00       	push   $0x45a0
    1f8f:	e8 6e 19 00 00       	call   3902 <open>
    1f94:	83 c4 10             	add    $0x10,%esp
    1f97:	85 c0                	test   %eax,%eax
    1f99:	0f 89 b2 02 00 00    	jns    2251 <subdir+0x551>
  if(open("dd", O_WRONLY) >= 0){
    1f9f:	83 ec 08             	sub    $0x8,%esp
    1fa2:	6a 01                	push   $0x1
    1fa4:	68 a0 45 00 00       	push   $0x45a0
    1fa9:	e8 54 19 00 00       	call   3902 <open>
    1fae:	83 c4 10             	add    $0x10,%esp
    1fb1:	85 c0                	test   %eax,%eax
    1fb3:	0f 89 85 02 00 00    	jns    223e <subdir+0x53e>
  if(link("dd/ff/ff", "dd/dd/xx") == 0){
    1fb9:	83 ec 08             	sub    $0x8,%esp
    1fbc:	68 82 46 00 00       	push   $0x4682
    1fc1:	68 ee 45 00 00       	push   $0x45ee
    1fc6:	e8 57 19 00 00       	call   3922 <link>
    1fcb:	83 c4 10             	add    $0x10,%esp
    1fce:	85 c0                	test   %eax,%eax
    1fd0:	0f 84 55 02 00 00    	je     222b <subdir+0x52b>
  if(link("dd/xx/ff", "dd/dd/xx") == 0){
    1fd6:	83 ec 08             	sub    $0x8,%esp
    1fd9:	68 82 46 00 00       	push   $0x4682
    1fde:	68 13 46 00 00       	push   $0x4613
    1fe3:	e8 3a 19 00 00       	call   3922 <link>
    1fe8:	83 c4 10             	add    $0x10,%esp
    1feb:	85 c0                	test   %eax,%eax
    1fed:	0f 84 25 02 00 00    	je     2218 <subdir+0x518>
  if(link("dd/ff", "dd/dd/ffff") == 0){
    1ff3:	83 ec 08             	sub    $0x8,%esp
    1ff6:	68 3a 45 00 00       	push   $0x453a
    1ffb:	68 d9 44 00 00       	push   $0x44d9
    2000:	e8 1d 19 00 00       	call   3922 <link>
    2005:	83 c4 10             	add    $0x10,%esp
    2008:	85 c0                	test   %eax,%eax
    200a:	0f 84 a9 01 00 00    	je     21b9 <subdir+0x4b9>
  if(mkdir("dd/ff/ff") == 0){
    2010:	83 ec 0c             	sub    $0xc,%esp
    2013:	68 ee 45 00 00       	push   $0x45ee
    2018:	e8 0d 19 00 00       	call   392a <mkdir>
    201d:	83 c4 10             	add    $0x10,%esp
    2020:	85 c0                	test   %eax,%eax
    2022:	0f 84 7e 01 00 00    	je     21a6 <subdir+0x4a6>
  if(mkdir("dd/xx/ff") == 0){
    2028:	83 ec 0c             	sub    $0xc,%esp
    202b:	68 13 46 00 00       	push   $0x4613
    2030:	e8 f5 18 00 00       	call   392a <mkdir>
    2035:	83 c4 10             	add    $0x10,%esp
    2038:	85 c0                	test   %eax,%eax
    203a:	0f 84 67 03 00 00    	je     23a7 <subdir+0x6a7>
  if(mkdir("dd/dd/ffff") == 0){
    2040:	83 ec 0c             	sub    $0xc,%esp
    2043:	68 3a 45 00 00       	push   $0x453a
    2048:	e8 dd 18 00 00       	call   392a <mkdir>
    204d:	83 c4 10             	add    $0x10,%esp
    2050:	85 c0                	test   %eax,%eax
    2052:	0f 84 3c 03 00 00    	je     2394 <subdir+0x694>
  if(unlink("dd/xx/ff") == 0){
    2058:	83 ec 0c             	sub    $0xc,%esp
    205b:	68 13 46 00 00       	push   $0x4613
    2060:	e8 ad 18 00 00       	call   3912 <unlink>
    2065:	83 c4 10             	add    $0x10,%esp
    2068:	85 c0                	test   %eax,%eax
    206a:	0f 84 11 03 00 00    	je     2381 <subdir+0x681>
  if(unlink("dd/ff/ff") == 0){
    2070:	83 ec 0c             	sub    $0xc,%esp
    2073:	68 ee 45 00 00       	push   $0x45ee
    2078:	e8 95 18 00 00       	call   3912 <unlink>
    207d:	83 c4 10             	add    $0x10,%esp
    2080:	85 c0                	test   %eax,%eax
    2082:	0f 84 e6 02 00 00    	je     236e <subdir+0x66e>
  if(chdir("dd/ff") == 0){
    2088:	83 ec 0c             	sub    $0xc,%esp
    208b:	68 d9 44 00 00       	push   $0x44d9
    2090:	e8 9d 18 00 00       	call   3932 <chdir>
    2095:	83 c4 10             	add    $0x10,%esp
    2098:	85 c0                	test   %eax,%eax
    209a:	0f 84 bb 02 00 00    	je     235b <subdir+0x65b>
  if(chdir("dd/xx") == 0){
    20a0:	83 ec 0c             	sub    $0xc,%esp
    20a3:	68 85 46 00 00       	push   $0x4685
    20a8:	e8 85 18 00 00       	call   3932 <chdir>
    20ad:	83 c4 10             	add    $0x10,%esp
    20b0:	85 c0                	test   %eax,%eax
    20b2:	0f 84 90 02 00 00    	je     2348 <subdir+0x648>
  if(unlink("dd/dd/ffff") != 0){
    20b8:	83 ec 0c             	sub    $0xc,%esp
    20bb:	68 3a 45 00 00       	push   $0x453a
    20c0:	e8 4d 18 00 00       	call   3912 <unlink>
    20c5:	83 c4 10             	add    $0x10,%esp
    20c8:	85 c0                	test   %eax,%eax
    20ca:	0f 85 9d 00 00 00    	jne    216d <subdir+0x46d>
  if(unlink("dd/ff") != 0){
    20d0:	83 ec 0c             	sub    $0xc,%esp
    20d3:	68 d9 44 00 00       	push   $0x44d9
    20d8:	e8 35 18 00 00       	call   3912 <unlink>
    20dd:	83 c4 10             	add    $0x10,%esp
    20e0:	85 c0                	test   %eax,%eax
    20e2:	0f 85 4d 02 00 00    	jne    2335 <subdir+0x635>
  if(unlink("dd") == 0){
    20e8:	83 ec 0c             	sub    $0xc,%esp
    20eb:	68 a0 45 00 00       	push   $0x45a0
    20f0:	e8 1d 18 00 00       	call   3912 <unlink>
    20f5:	83 c4 10             	add    $0x10,%esp
    20f8:	85 c0                	test   %eax,%eax
    20fa:	0f 84 22 02 00 00    	je     2322 <subdir+0x622>
  if(unlink("dd/dd") < 0){
    2100:	83 ec 0c             	sub    $0xc,%esp
    2103:	68 b5 44 00 00       	push   $0x44b5
    2108:	e8 05 18 00 00       	call   3912 <unlink>
    210d:	83 c4 10             	add    $0x10,%esp
    2110:	85 c0                	test   %eax,%eax
    2112:	0f 88 f7 01 00 00    	js     230f <subdir+0x60f>
  if(unlink("dd") < 0){
    2118:	83 ec 0c             	sub    $0xc,%esp
    211b:	68 a0 45 00 00       	push   $0x45a0
    2120:	e8 ed 17 00 00       	call   3912 <unlink>
    2125:	83 c4 10             	add    $0x10,%esp
    2128:	85 c0                	test   %eax,%eax
    212a:	0f 88 cc 01 00 00    	js     22fc <subdir+0x5fc>
  printf(1, "subdir ok\n");
    2130:	83 ec 08             	sub    $0x8,%esp
    2133:	68 82 47 00 00       	push   $0x4782
    2138:	6a 01                	push   $0x1
    213a:	e8 d1 18 00 00       	call   3a10 <printf>
}
    213f:	83 c4 10             	add    $0x10,%esp
    2142:	8b 5d fc             	mov    -0x4(%ebp),%ebx
    2145:	c9                   	leave  
    2146:	c3                   	ret    
    printf(1, "dd/dd/../ff wrong content\n");
    2147:	50                   	push   %eax
    2148:	50                   	push   %eax
    2149:	68 1f 45 00 00       	push   $0x451f
    214e:	6a 01                	push   $0x1
    2150:	e8 bb 18 00 00       	call   3a10 <printf>
    exit();
    2155:	e8 68 17 00 00       	call   38c2 <exit>
    printf(1, "chdir dd/../../dd failed\n");
    215a:	50                   	push   %eax
    215b:	50                   	push   %eax
    215c:	68 7a 45 00 00       	push   $0x457a
    2161:	6a 01                	push   $0x1
    2163:	e8 a8 18 00 00       	call   3a10 <printf>
    exit();
    2168:	e8 55 17 00 00       	call   38c2 <exit>
    printf(1, "unlink dd/dd/ff failed\n");
    216d:	52                   	push   %edx
    216e:	52                   	push   %edx
    216f:	68 45 45 00 00       	push   $0x4545
    2174:	6a 01                	push   $0x1
    2176:	e8 95 18 00 00       	call   3a10 <printf>
    exit();
    217b:	e8 42 17 00 00       	call   38c2 <exit>
    printf(1, "create dd/ff/ff succeeded!\n");
    2180:	50                   	push   %eax
    2181:	50                   	push   %eax
    2182:	68 f7 45 00 00       	push   $0x45f7
    2187:	6a 01                	push   $0x1
    2189:	e8 82 18 00 00       	call   3a10 <printf>
    exit();
    218e:	e8 2f 17 00 00       	call   38c2 <exit>
    printf(1, "open (unlinked) dd/dd/ff succeeded!\n");
    2193:	52                   	push   %edx
    2194:	52                   	push   %edx
    2195:	68 dc 4f 00 00       	push   $0x4fdc
    219a:	6a 01                	push   $0x1
    219c:	e8 6f 18 00 00       	call   3a10 <printf>
    exit();
    21a1:	e8 1c 17 00 00       	call   38c2 <exit>
    printf(1, "mkdir dd/ff/ff succeeded!\n");
    21a6:	52                   	push   %edx
    21a7:	52                   	push   %edx
    21a8:	68 8b 46 00 00       	push   $0x468b
    21ad:	6a 01                	push   $0x1
    21af:	e8 5c 18 00 00       	call   3a10 <printf>
    exit();
    21b4:	e8 09 17 00 00       	call   38c2 <exit>
    printf(1, "link dd/ff dd/dd/ffff succeeded!\n");
    21b9:	51                   	push   %ecx
    21ba:	51                   	push   %ecx
    21bb:	68 4c 50 00 00       	push   $0x504c
    21c0:	6a 01                	push   $0x1
    21c2:	e8 49 18 00 00       	call   3a10 <printf>
    exit();
    21c7:	e8 f6 16 00 00       	call   38c2 <exit>
    printf(1, "open dd/dd/../ff failed\n");
    21cc:	50                   	push   %eax
    21cd:	50                   	push   %eax
    21ce:	68 06 45 00 00       	push   $0x4506
    21d3:	6a 01                	push   $0x1
    21d5:	e8 36 18 00 00       	call   3a10 <printf>
    exit();
    21da:	e8 e3 16 00 00       	call   38c2 <exit>
    printf(1, "create dd/dd/ff failed\n");
    21df:	51                   	push   %ecx
    21e0:	51                   	push   %ecx
    21e1:	68 df 44 00 00       	push   $0x44df
    21e6:	6a 01                	push   $0x1
    21e8:	e8 23 18 00 00       	call   3a10 <printf>
    exit();
    21ed:	e8 d0 16 00 00       	call   38c2 <exit>
    printf(1, "chdir ./.. failed\n");
    21f2:	50                   	push   %eax
    21f3:	50                   	push   %eax
    21f4:	68 a8 45 00 00       	push   $0x45a8
    21f9:	6a 01                	push   $0x1
    21fb:	e8 10 18 00 00       	call   3a10 <printf>
    exit();
    2200:	e8 bd 16 00 00       	call   38c2 <exit>
    printf(1, "link dd/dd/ff dd/dd/ffff failed\n");
    2205:	51                   	push   %ecx
    2206:	51                   	push   %ecx
    2207:	68 94 4f 00 00       	push   $0x4f94
    220c:	6a 01                	push   $0x1
    220e:	e8 fd 17 00 00       	call   3a10 <printf>
    exit();
    2213:	e8 aa 16 00 00       	call   38c2 <exit>
    printf(1, "link dd/xx/ff dd/dd/xx succeeded!\n");
    2218:	53                   	push   %ebx
    2219:	53                   	push   %ebx
    221a:	68 28 50 00 00       	push   $0x5028
    221f:	6a 01                	push   $0x1
    2221:	e8 ea 17 00 00       	call   3a10 <printf>
    exit();
    2226:	e8 97 16 00 00       	call   38c2 <exit>
    printf(1, "link dd/ff/ff dd/dd/xx succeeded!\n");
    222b:	50                   	push   %eax
    222c:	50                   	push   %eax
    222d:	68 04 50 00 00       	push   $0x5004
    2232:	6a 01                	push   $0x1
    2234:	e8 d7 17 00 00       	call   3a10 <printf>
    exit();
    2239:	e8 84 16 00 00       	call   38c2 <exit>
    printf(1, "open dd wronly succeeded!\n");
    223e:	50                   	push   %eax
    223f:	50                   	push   %eax
    2240:	68 67 46 00 00       	push   $0x4667
    2245:	6a 01                	push   $0x1
    2247:	e8 c4 17 00 00       	call   3a10 <printf>
    exit();
    224c:	e8 71 16 00 00       	call   38c2 <exit>
    printf(1, "open dd rdwr succeeded!\n");
    2251:	50                   	push   %eax
    2252:	50                   	push   %eax
    2253:	68 4e 46 00 00       	push   $0x464e
    2258:	6a 01                	push   $0x1
    225a:	e8 b1 17 00 00       	call   3a10 <printf>
    exit();
    225f:	e8 5e 16 00 00       	call   38c2 <exit>
    printf(1, "create dd succeeded!\n");
    2264:	50                   	push   %eax
    2265:	50                   	push   %eax
    2266:	68 38 46 00 00       	push   $0x4638
    226b:	6a 01                	push   $0x1
    226d:	e8 9e 17 00 00       	call   3a10 <printf>
    exit();
    2272:	e8 4b 16 00 00       	call   38c2 <exit>
    printf(1, "create dd/xx/ff succeeded!\n");
    2277:	50                   	push   %eax
    2278:	50                   	push   %eax
    2279:	68 1c 46 00 00       	push   $0x461c
    227e:	6a 01                	push   $0x1
    2280:	e8 8b 17 00 00       	call   3a10 <printf>
    exit();
    2285:	e8 38 16 00 00       	call   38c2 <exit>
    printf(1, "chdir dd failed\n");
    228a:	50                   	push   %eax
    228b:	50                   	push   %eax
    228c:	68 5d 45 00 00       	push   $0x455d
    2291:	6a 01                	push   $0x1
    2293:	e8 78 17 00 00       	call   3a10 <printf>
    exit();
    2298:	e8 25 16 00 00       	call   38c2 <exit>
    printf(1, "open (unlinked) dd/dd/ff succeeded\n");
    229d:	50                   	push   %eax
    229e:	50                   	push   %eax
    229f:	68 b8 4f 00 00       	push   $0x4fb8
    22a4:	6a 01                	push   $0x1
    22a6:	e8 65 17 00 00       	call   3a10 <printf>
    exit();
    22ab:	e8 12 16 00 00       	call   38c2 <exit>
    printf(1, "subdir mkdir dd/dd failed\n");
    22b0:	53                   	push   %ebx
    22b1:	53                   	push   %ebx
    22b2:	68 bb 44 00 00       	push   $0x44bb
    22b7:	6a 01                	push   $0x1
    22b9:	e8 52 17 00 00       	call   3a10 <printf>
    exit();
    22be:	e8 ff 15 00 00       	call   38c2 <exit>
    printf(1, "unlink dd (non-empty dir) succeeded!\n");
    22c3:	50                   	push   %eax
    22c4:	50                   	push   %eax
    22c5:	68 6c 4f 00 00       	push   $0x4f6c
    22ca:	6a 01                	push   $0x1
    22cc:	e8 3f 17 00 00       	call   3a10 <printf>
    exit();
    22d1:	e8 ec 15 00 00       	call   38c2 <exit>
    printf(1, "create dd/ff failed\n");
    22d6:	50                   	push   %eax
    22d7:	50                   	push   %eax
    22d8:	68 9f 44 00 00       	push   $0x449f
    22dd:	6a 01                	push   $0x1
    22df:	e8 2c 17 00 00       	call   3a10 <printf>
    exit();
    22e4:	e8 d9 15 00 00       	call   38c2 <exit>
    printf(1, "subdir mkdir dd failed\n");
    22e9:	50                   	push   %eax
    22ea:	50                   	push   %eax
    22eb:	68 87 44 00 00       	push   $0x4487
    22f0:	6a 01                	push   $0x1
    22f2:	e8 19 17 00 00       	call   3a10 <printf>
    exit();
    22f7:	e8 c6 15 00 00       	call   38c2 <exit>
    printf(1, "unlink dd failed\n");
    22fc:	50                   	push   %eax
    22fd:	50                   	push   %eax
    22fe:	68 70 47 00 00       	push   $0x4770
    2303:	6a 01                	push   $0x1
    2305:	e8 06 17 00 00       	call   3a10 <printf>
    exit();
    230a:	e8 b3 15 00 00       	call   38c2 <exit>
    printf(1, "unlink dd/dd failed\n");
    230f:	52                   	push   %edx
    2310:	52                   	push   %edx
    2311:	68 5b 47 00 00       	push   $0x475b
    2316:	6a 01                	push   $0x1
    2318:	e8 f3 16 00 00       	call   3a10 <printf>
    exit();
    231d:	e8 a0 15 00 00       	call   38c2 <exit>
    printf(1, "unlink non-empty dd succeeded!\n");
    2322:	51                   	push   %ecx
    2323:	51                   	push   %ecx
    2324:	68 70 50 00 00       	push   $0x5070
    2329:	6a 01                	push   $0x1
    232b:	e8 e0 16 00 00       	call   3a10 <printf>
    exit();
    2330:	e8 8d 15 00 00       	call   38c2 <exit>
    printf(1, "unlink dd/ff failed\n");
    2335:	53                   	push   %ebx
    2336:	53                   	push   %ebx
    2337:	68 46 47 00 00       	push   $0x4746
    233c:	6a 01                	push   $0x1
    233e:	e8 cd 16 00 00       	call   3a10 <printf>
    exit();
    2343:	e8 7a 15 00 00       	call   38c2 <exit>
    printf(1, "chdir dd/xx succeeded!\n");
    2348:	50                   	push   %eax
    2349:	50                   	push   %eax
    234a:	68 2e 47 00 00       	push   $0x472e
    234f:	6a 01                	push   $0x1
    2351:	e8 ba 16 00 00       	call   3a10 <printf>
    exit();
    2356:	e8 67 15 00 00       	call   38c2 <exit>
    printf(1, "chdir dd/ff succeeded!\n");
    235b:	50                   	push   %eax
    235c:	50                   	push   %eax
    235d:	68 16 47 00 00       	push   $0x4716
    2362:	6a 01                	push   $0x1
    2364:	e8 a7 16 00 00       	call   3a10 <printf>
    exit();
    2369:	e8 54 15 00 00       	call   38c2 <exit>
    printf(1, "unlink dd/ff/ff succeeded!\n");
    236e:	50                   	push   %eax
    236f:	50                   	push   %eax
    2370:	68 fa 46 00 00       	push   $0x46fa
    2375:	6a 01                	push   $0x1
    2377:	e8 94 16 00 00       	call   3a10 <printf>
    exit();
    237c:	e8 41 15 00 00       	call   38c2 <exit>
    printf(1, "unlink dd/xx/ff succeeded!\n");
    2381:	50                   	push   %eax
    2382:	50                   	push   %eax
    2383:	68 de 46 00 00       	push   $0x46de
    2388:	6a 01                	push   $0x1
    238a:	e8 81 16 00 00       	call   3a10 <printf>
    exit();
    238f:	e8 2e 15 00 00       	call   38c2 <exit>
    printf(1, "mkdir dd/dd/ffff succeeded!\n");
    2394:	50                   	push   %eax
    2395:	50                   	push   %eax
    2396:	68 c1 46 00 00       	push   $0x46c1
    239b:	6a 01                	push   $0x1
    239d:	e8 6e 16 00 00       	call   3a10 <printf>
    exit();
    23a2:	e8 1b 15 00 00       	call   38c2 <exit>
    printf(1, "mkdir dd/xx/ff succeeded!\n");
    23a7:	50                   	push   %eax
    23a8:	50                   	push   %eax
    23a9:	68 a6 46 00 00       	push   $0x46a6
    23ae:	6a 01                	push   $0x1
    23b0:	e8 5b 16 00 00       	call   3a10 <printf>
    exit();
    23b5:	e8 08 15 00 00       	call   38c2 <exit>
    printf(1, "read dd/dd/ffff wrong len\n");
    23ba:	50                   	push   %eax
    23bb:	50                   	push   %eax
    23bc:	68 d3 45 00 00       	push   $0x45d3
    23c1:	6a 01                	push   $0x1
    23c3:	e8 48 16 00 00       	call   3a10 <printf>
    exit();
    23c8:	e8 f5 14 00 00       	call   38c2 <exit>
    printf(1, "open dd/dd/ffff failed\n");
    23cd:	50                   	push   %eax
    23ce:	50                   	push   %eax
    23cf:	68 bb 45 00 00       	push   $0x45bb
    23d4:	6a 01                	push   $0x1
    23d6:	e8 35 16 00 00       	call   3a10 <printf>
    exit();
    23db:	e8 e2 14 00 00       	call   38c2 <exit>

000023e0 <bigwrite>:
{
    23e0:	55                   	push   %ebp
    23e1:	89 e5                	mov    %esp,%ebp
    23e3:	56                   	push   %esi
    23e4:	53                   	push   %ebx
  for(sz = 499; sz < 12*512; sz += 471){
    23e5:	bb f3 01 00 00       	mov    $0x1f3,%ebx
  printf(1, "bigwrite test\n");
    23ea:	83 ec 08             	sub    $0x8,%esp
    23ed:	68 8d 47 00 00       	push   $0x478d
    23f2:	6a 01                	push   $0x1
    23f4:	e8 17 16 00 00       	call   3a10 <printf>
  unlink("bigwrite");
    23f9:	c7 04 24 9c 47 00 00 	movl   $0x479c,(%esp)
    2400:	e8 0d 15 00 00       	call   3912 <unlink>
    2405:	83 c4 10             	add    $0x10,%esp
    2408:	90                   	nop
    2409:	8d b4 26 00 00 00 00 	lea    0x0(%esi,%eiz,1),%esi
    fd = open("bigwrite", O_CREATE | O_RDWR);
    2410:	83 ec 08             	sub    $0x8,%esp
    2413:	68 02 02 00 00       	push   $0x202
    2418:	68 9c 47 00 00       	push   $0x479c
    241d:	e8 e0 14 00 00       	call   3902 <open>
    if(fd < 0){
    2422:	83 c4 10             	add    $0x10,%esp
    2425:	85 c0                	test   %eax,%eax
    fd = open("bigwrite", O_CREATE | O_RDWR);
    2427:	89 c6                	mov    %eax,%esi
    if(fd < 0){
    2429:	78 7e                	js     24a9 <bigwrite+0xc9>
      int cc = write(fd, buf, sz);
    242b:	83 ec 04             	sub    $0x4,%esp
    242e:	53                   	push   %ebx
    242f:	68 a0 85 00 00       	push   $0x85a0
    2434:	50                   	push   %eax
    2435:	e8 a8 14 00 00       	call   38e2 <write>
      if(cc != sz){
    243a:	83 c4 10             	add    $0x10,%esp
    243d:	39 d8                	cmp    %ebx,%eax
    243f:	75 55                	jne    2496 <bigwrite+0xb6>
      int cc = write(fd, buf, sz);
    2441:	83 ec 04             	sub    $0x4,%esp
    2444:	53                   	push   %ebx
    2445:	68 a0 85 00 00       	push   $0x85a0
    244a:	56                   	push   %esi
    244b:	e8 92 14 00 00       	call   38e2 <write>
      if(cc != sz){
    2450:	83 c4 10             	add    $0x10,%esp
    2453:	39 d8                	cmp    %ebx,%eax
    2455:	75 3f                	jne    2496 <bigwrite+0xb6>
    close(fd);
    2457:	83 ec 0c             	sub    $0xc,%esp
  for(sz = 499; sz < 12*512; sz += 471){
    245a:	81 c3 d7 01 00 00    	add    $0x1d7,%ebx
    close(fd);
    2460:	56                   	push   %esi
    2461:	e8 84 14 00 00       	call   38ea <close>
    unlink("bigwrite");
    2466:	c7 04 24 9c 47 00 00 	movl   $0x479c,(%esp)
    246d:	e8 a0 14 00 00       	call   3912 <unlink>
  for(sz = 499; sz < 12*512; sz += 471){
    2472:	83 c4 10             	add    $0x10,%esp
    2475:	81 fb 07 18 00 00    	cmp    $0x1807,%ebx
    247b:	75 93                	jne    2410 <bigwrite+0x30>
  printf(1, "bigwrite ok\n");
    247d:	83 ec 08             	sub    $0x8,%esp
    2480:	68 cf 47 00 00       	push   $0x47cf
    2485:	6a 01                	push   $0x1
    2487:	e8 84 15 00 00       	call   3a10 <printf>
}
    248c:	83 c4 10             	add    $0x10,%esp
    248f:	8d 65 f8             	lea    -0x8(%ebp),%esp
    2492:	5b                   	pop    %ebx
    2493:	5e                   	pop    %esi
    2494:	5d                   	pop    %ebp
    2495:	c3                   	ret    
        printf(1, "write(%d) ret %d\n", sz, cc);
    2496:	50                   	push   %eax
    2497:	53                   	push   %ebx
    2498:	68 bd 47 00 00       	push   $0x47bd
    249d:	6a 01                	push   $0x1
    249f:	e8 6c 15 00 00       	call   3a10 <printf>
        exit();
    24a4:	e8 19 14 00 00       	call   38c2 <exit>
      printf(1, "cannot create bigwrite\n");
    24a9:	83 ec 08             	sub    $0x8,%esp
    24ac:	68 a5 47 00 00       	push   $0x47a5
    24b1:	6a 01                	push   $0x1
    24b3:	e8 58 15 00 00       	call   3a10 <printf>
      exit();
    24b8:	e8 05 14 00 00       	call   38c2 <exit>
    24bd:	8d 76 00             	lea    0x0(%esi),%esi

000024c0 <bigfile>:
{
    24c0:	55                   	push   %ebp
    24c1:	89 e5                	mov    %esp,%ebp
    24c3:	57                   	push   %edi
    24c4:	56                   	push   %esi
    24c5:	53                   	push   %ebx
    24c6:	83 ec 14             	sub    $0x14,%esp
  printf(1, "bigfile test\n");
    24c9:	68 dc 47 00 00       	push   $0x47dc
    24ce:	6a 01                	push   $0x1
    24d0:	e8 3b 15 00 00       	call   3a10 <printf>
  unlink("bigfile");
    24d5:	c7 04 24 f8 47 00 00 	movl   $0x47f8,(%esp)
    24dc:	e8 31 14 00 00       	call   3912 <unlink>
  fd = open("bigfile", O_CREATE | O_RDWR);
    24e1:	5e                   	pop    %esi
    24e2:	5f                   	pop    %edi
    24e3:	68 02 02 00 00       	push   $0x202
    24e8:	68 f8 47 00 00       	push   $0x47f8
    24ed:	e8 10 14 00 00       	call   3902 <open>
  if(fd < 0){
    24f2:	83 c4 10             	add    $0x10,%esp
    24f5:	85 c0                	test   %eax,%eax
    24f7:	0f 88 5f 01 00 00    	js     265c <bigfile+0x19c>
    24fd:	89 c6                	mov    %eax,%esi
    24ff:	31 db                	xor    %ebx,%ebx
    2501:	8d b4 26 00 00 00 00 	lea    0x0(%esi,%eiz,1),%esi
    memset(buf, i, 600);
    2508:	83 ec 04             	sub    $0x4,%esp
    250b:	68 58 02 00 00       	push   $0x258
    2510:	53                   	push   %ebx
    2511:	68 a0 85 00 00       	push   $0x85a0
    2516:	e8 15 12 00 00       	call   3730 <memset>
    if(write(fd, buf, 600) != 600){
    251b:	83 c4 0c             	add    $0xc,%esp
    251e:	68 58 02 00 00       	push   $0x258
    2523:	68 a0 85 00 00       	push   $0x85a0
    2528:	56                   	push   %esi
    2529:	e8 b4 13 00 00       	call   38e2 <write>
    252e:	83 c4 10             	add    $0x10,%esp
    2531:	3d 58 02 00 00       	cmp    $0x258,%eax
    2536:	0f 85 f8 00 00 00    	jne    2634 <bigfile+0x174>
  for(i = 0; i < 20; i++){
    253c:	83 c3 01             	add    $0x1,%ebx
    253f:	83 fb 14             	cmp    $0x14,%ebx
    2542:	75 c4                	jne    2508 <bigfile+0x48>
  close(fd);
    2544:	83 ec 0c             	sub    $0xc,%esp
    2547:	56                   	push   %esi
    2548:	e8 9d 13 00 00       	call   38ea <close>
  fd = open("bigfile", 0);
    254d:	59                   	pop    %ecx
    254e:	5b                   	pop    %ebx
    254f:	6a 00                	push   $0x0
    2551:	68 f8 47 00 00       	push   $0x47f8
    2556:	e8 a7 13 00 00       	call   3902 <open>
  if(fd < 0){
    255b:	83 c4 10             	add    $0x10,%esp
    255e:	85 c0                	test   %eax,%eax
  fd = open("bigfile", 0);
    2560:	89 c6                	mov    %eax,%esi
  if(fd < 0){
    2562:	0f 88 e0 00 00 00    	js     2648 <bigfile+0x188>
    2568:	31 db                	xor    %ebx,%ebx
    256a:	31 ff                	xor    %edi,%edi
    256c:	eb 30                	jmp    259e <bigfile+0xde>
    256e:	66 90                	xchg   %ax,%ax
    if(cc != 300){
    2570:	3d 2c 01 00 00       	cmp    $0x12c,%eax
    2575:	0f 85 91 00 00 00    	jne    260c <bigfile+0x14c>
    if(buf[0] != i/2 || buf[299] != i/2){
    257b:	0f be 05 a0 85 00 00 	movsbl 0x85a0,%eax
    2582:	89 fa                	mov    %edi,%edx
    2584:	d1 fa                	sar    %edx
    2586:	39 d0                	cmp    %edx,%eax
    2588:	75 6e                	jne    25f8 <bigfile+0x138>
    258a:	0f be 15 cb 86 00 00 	movsbl 0x86cb,%edx
    2591:	39 d0                	cmp    %edx,%eax
    2593:	75 63                	jne    25f8 <bigfile+0x138>
    total += cc;
    2595:	81 c3 2c 01 00 00    	add    $0x12c,%ebx
  for(i = 0; ; i++){
    259b:	83 c7 01             	add    $0x1,%edi
    cc = read(fd, buf, 300);
    259e:	83 ec 04             	sub    $0x4,%esp
    25a1:	68 2c 01 00 00       	push   $0x12c
    25a6:	68 a0 85 00 00       	push   $0x85a0
    25ab:	56                   	push   %esi
    25ac:	e8 29 13 00 00       	call   38da <read>
    if(cc < 0){
    25b1:	83 c4 10             	add    $0x10,%esp
    25b4:	85 c0                	test   %eax,%eax
    25b6:	78 68                	js     2620 <bigfile+0x160>
    if(cc == 0)
    25b8:	75 b6                	jne    2570 <bigfile+0xb0>
  close(fd);
    25ba:	83 ec 0c             	sub    $0xc,%esp
    25bd:	56                   	push   %esi
    25be:	e8 27 13 00 00       	call   38ea <close>
  if(total != 20*600){
    25c3:	83 c4 10             	add    $0x10,%esp
    25c6:	81 fb e0 2e 00 00    	cmp    $0x2ee0,%ebx
    25cc:	0f 85 9e 00 00 00    	jne    2670 <bigfile+0x1b0>
  unlink("bigfile");
    25d2:	83 ec 0c             	sub    $0xc,%esp
    25d5:	68 f8 47 00 00       	push   $0x47f8
    25da:	e8 33 13 00 00       	call   3912 <unlink>
  printf(1, "bigfile test ok\n");
    25df:	58                   	pop    %eax
    25e0:	5a                   	pop    %edx
    25e1:	68 87 48 00 00       	push   $0x4887
    25e6:	6a 01                	push   $0x1
    25e8:	e8 23 14 00 00       	call   3a10 <printf>
}
    25ed:	83 c4 10             	add    $0x10,%esp
    25f0:	8d 65 f4             	lea    -0xc(%ebp),%esp
    25f3:	5b                   	pop    %ebx
    25f4:	5e                   	pop    %esi
    25f5:	5f                   	pop    %edi
    25f6:	5d                   	pop    %ebp
    25f7:	c3                   	ret    
      printf(1, "read bigfile wrong data\n");
    25f8:	83 ec 08             	sub    $0x8,%esp
    25fb:	68 54 48 00 00       	push   $0x4854
    2600:	6a 01                	push   $0x1
    2602:	e8 09 14 00 00       	call   3a10 <printf>
      exit();
    2607:	e8 b6 12 00 00       	call   38c2 <exit>
      printf(1, "short read bigfile\n");
    260c:	83 ec 08             	sub    $0x8,%esp
    260f:	68 40 48 00 00       	push   $0x4840
    2614:	6a 01                	push   $0x1
    2616:	e8 f5 13 00 00       	call   3a10 <printf>
      exit();
    261b:	e8 a2 12 00 00       	call   38c2 <exit>
      printf(1, "read bigfile failed\n");
    2620:	83 ec 08             	sub    $0x8,%esp
    2623:	68 2b 48 00 00       	push   $0x482b
    2628:	6a 01                	push   $0x1
    262a:	e8 e1 13 00 00       	call   3a10 <printf>
      exit();
    262f:	e8 8e 12 00 00       	call   38c2 <exit>
      printf(1, "write bigfile failed\n");
    2634:	83 ec 08             	sub    $0x8,%esp
    2637:	68 00 48 00 00       	push   $0x4800
    263c:	6a 01                	push   $0x1
    263e:	e8 cd 13 00 00       	call   3a10 <printf>
      exit();
    2643:	e8 7a 12 00 00       	call   38c2 <exit>
    printf(1, "cannot open bigfile\n");
    2648:	83 ec 08             	sub    $0x8,%esp
    264b:	68 16 48 00 00       	push   $0x4816
    2650:	6a 01                	push   $0x1
    2652:	e8 b9 13 00 00       	call   3a10 <printf>
    exit();
    2657:	e8 66 12 00 00       	call   38c2 <exit>
    printf(1, "cannot create bigfile");
    265c:	83 ec 08             	sub    $0x8,%esp
    265f:	68 ea 47 00 00       	push   $0x47ea
    2664:	6a 01                	push   $0x1
    2666:	e8 a5 13 00 00       	call   3a10 <printf>
    exit();
    266b:	e8 52 12 00 00       	call   38c2 <exit>
    printf(1, "read bigfile wrong total\n");
    2670:	83 ec 08             	sub    $0x8,%esp
    2673:	68 6d 48 00 00       	push   $0x486d
    2678:	6a 01                	push   $0x1
    267a:	e8 91 13 00 00       	call   3a10 <printf>
    exit();
    267f:	e8 3e 12 00 00       	call   38c2 <exit>
    2684:	8d b6 00 00 00 00    	lea    0x0(%esi),%esi
    268a:	8d bf 00 00 00 00    	lea    0x0(%edi),%edi

00002690 <fourteen>:
{
    2690:	55                   	push   %ebp
    2691:	89 e5                	mov    %esp,%ebp
    2693:	83 ec 10             	sub    $0x10,%esp
  printf(1, "fourteen test\n");
    2696:	68 98 48 00 00       	push   $0x4898
    269b:	6a 01                	push   $0x1
    269d:	e8 6e 13 00 00       	call   3a10 <printf>
  if(mkdir("12345678901234") != 0){
    26a2:	c7 04 24 d3 48 00 00 	movl   $0x48d3,(%esp)
    26a9:	e8 7c 12 00 00       	call   392a <mkdir>
    26ae:	83 c4 10             	add    $0x10,%esp
    26b1:	85 c0                	test   %eax,%eax
    26b3:	0f 85 97 00 00 00    	jne    2750 <fourteen+0xc0>
  if(mkdir("12345678901234/123456789012345") != 0){
    26b9:	83 ec 0c             	sub    $0xc,%esp
    26bc:	68 90 50 00 00       	push   $0x5090
    26c1:	e8 64 12 00 00       	call   392a <mkdir>
    26c6:	83 c4 10             	add    $0x10,%esp
    26c9:	85 c0                	test   %eax,%eax
    26cb:	0f 85 de 00 00 00    	jne    27af <fourteen+0x11f>
  fd = open("123456789012345/123456789012345/123456789012345", O_CREATE);
    26d1:	83 ec 08             	sub    $0x8,%esp
    26d4:	68 00 02 00 00       	push   $0x200
    26d9:	68 e0 50 00 00       	push   $0x50e0
    26de:	e8 1f 12 00 00       	call   3902 <open>
  if(fd < 0){
    26e3:	83 c4 10             	add    $0x10,%esp
    26e6:	85 c0                	test   %eax,%eax
    26e8:	0f 88 ae 00 00 00    	js     279c <fourteen+0x10c>
  close(fd);
    26ee:	83 ec 0c             	sub    $0xc,%esp
    26f1:	50                   	push   %eax
    26f2:	e8 f3 11 00 00       	call   38ea <close>
  fd = open("12345678901234/12345678901234/12345678901234", 0);
    26f7:	58                   	pop    %eax
    26f8:	5a                   	pop    %edx
    26f9:	6a 00                	push   $0x0
    26fb:	68 50 51 00 00       	push   $0x5150
    2700:	e8 fd 11 00 00       	call   3902 <open>
  if(fd < 0){
    2705:	83 c4 10             	add    $0x10,%esp
    2708:	85 c0                	test   %eax,%eax
    270a:	78 7d                	js     2789 <fourteen+0xf9>
  close(fd);
    270c:	83 ec 0c             	sub    $0xc,%esp
    270f:	50                   	push   %eax
    2710:	e8 d5 11 00 00       	call   38ea <close>
  if(mkdir("12345678901234/12345678901234") == 0){
    2715:	c7 04 24 c4 48 00 00 	movl   $0x48c4,(%esp)
    271c:	e8 09 12 00 00       	call   392a <mkdir>
    2721:	83 c4 10             	add    $0x10,%esp
    2724:	85 c0                	test   %eax,%eax
    2726:	74 4e                	je     2776 <fourteen+0xe6>
  if(mkdir("123456789012345/12345678901234") == 0){
    2728:	83 ec 0c             	sub    $0xc,%esp
    272b:	68 ec 51 00 00       	push   $0x51ec
    2730:	e8 f5 11 00 00       	call   392a <mkdir>
    2735:	83 c4 10             	add    $0x10,%esp
    2738:	85 c0                	test   %eax,%eax
    273a:	74 27                	je     2763 <fourteen+0xd3>
  printf(1, "fourteen ok\n");
    273c:	83 ec 08             	sub    $0x8,%esp
    273f:	68 e2 48 00 00       	push   $0x48e2
    2744:	6a 01                	push   $0x1
    2746:	e8 c5 12 00 00       	call   3a10 <printf>
}
    274b:	83 c4 10             	add    $0x10,%esp
    274e:	c9                   	leave  
    274f:	c3                   	ret    
    printf(1, "mkdir 12345678901234 failed\n");
    2750:	50                   	push   %eax
    2751:	50                   	push   %eax
    2752:	68 a7 48 00 00       	push   $0x48a7
    2757:	6a 01                	push   $0x1
    2759:	e8 b2 12 00 00       	call   3a10 <printf>
    exit();
    275e:	e8 5f 11 00 00       	call   38c2 <exit>
    printf(1, "mkdir 12345678901234/123456789012345 succeeded!\n");
    2763:	50                   	push   %eax
    2764:	50                   	push   %eax
    2765:	68 0c 52 00 00       	push   $0x520c
    276a:	6a 01                	push   $0x1
    276c:	e8 9f 12 00 00       	call   3a10 <printf>
    exit();
    2771:	e8 4c 11 00 00       	call   38c2 <exit>
    printf(1, "mkdir 12345678901234/12345678901234 succeeded!\n");
    2776:	52                   	push   %edx
    2777:	52                   	push   %edx
    2778:	68 bc 51 00 00       	push   $0x51bc
    277d:	6a 01                	push   $0x1
    277f:	e8 8c 12 00 00       	call   3a10 <printf>
    exit();
    2784:	e8 39 11 00 00       	call   38c2 <exit>
    printf(1, "open 12345678901234/12345678901234/12345678901234 failed\n");
    2789:	51                   	push   %ecx
    278a:	51                   	push   %ecx
    278b:	68 80 51 00 00       	push   $0x5180
    2790:	6a 01                	push   $0x1
    2792:	e8 79 12 00 00       	call   3a10 <printf>
    exit();
    2797:	e8 26 11 00 00       	call   38c2 <exit>
    printf(1, "create 123456789012345/123456789012345/123456789012345 failed\n");
    279c:	51                   	push   %ecx
    279d:	51                   	push   %ecx
    279e:	68 10 51 00 00       	push   $0x5110
    27a3:	6a 01                	push   $0x1
    27a5:	e8 66 12 00 00       	call   3a10 <printf>
    exit();
    27aa:	e8 13 11 00 00       	call   38c2 <exit>
    printf(1, "mkdir 12345678901234/123456789012345 failed\n");
    27af:	50                   	push   %eax
    27b0:	50                   	push   %eax
    27b1:	68 b0 50 00 00       	push   $0x50b0
    27b6:	6a 01                	push   $0x1
    27b8:	e8 53 12 00 00       	call   3a10 <printf>
    exit();
    27bd:	e8 00 11 00 00       	call   38c2 <exit>
    27c2:	8d b4 26 00 00 00 00 	lea    0x0(%esi,%eiz,1),%esi
    27c9:	8d bc 27 00 00 00 00 	lea    0x0(%edi,%eiz,1),%edi

000027d0 <rmdot>:
{
    27d0:	55                   	push   %ebp
    27d1:	89 e5                	mov    %esp,%ebp
    27d3:	83 ec 10             	sub    $0x10,%esp
  printf(1, "rmdot test\n");
    27d6:	68 ef 48 00 00       	push   $0x48ef
    27db:	6a 01                	push   $0x1
    27dd:	e8 2e 12 00 00       	call   3a10 <printf>
  if(mkdir("dots") != 0){
    27e2:	c7 04 24 fb 48 00 00 	movl   $0x48fb,(%esp)
    27e9:	e8 3c 11 00 00       	call   392a <mkdir>
    27ee:	83 c4 10             	add    $0x10,%esp
    27f1:	85 c0                	test   %eax,%eax
    27f3:	0f 85 b0 00 00 00    	jne    28a9 <rmdot+0xd9>
  if(chdir("dots") != 0){
    27f9:	83 ec 0c             	sub    $0xc,%esp
    27fc:	68 fb 48 00 00       	push   $0x48fb
    2801:	e8 2c 11 00 00       	call   3932 <chdir>
    2806:	83 c4 10             	add    $0x10,%esp
    2809:	85 c0                	test   %eax,%eax
    280b:	0f 85 1d 01 00 00    	jne    292e <rmdot+0x15e>
  if(unlink(".") == 0){
    2811:	83 ec 0c             	sub    $0xc,%esp
    2814:	68 a6 45 00 00       	push   $0x45a6
    2819:	e8 f4 10 00 00       	call   3912 <unlink>
    281e:	83 c4 10             	add    $0x10,%esp
    2821:	85 c0                	test   %eax,%eax
    2823:	0f 84 f2 00 00 00    	je     291b <rmdot+0x14b>
  if(unlink("..") == 0){
    2829:	83 ec 0c             	sub    $0xc,%esp
    282c:	68 a5 45 00 00       	push   $0x45a5
    2831:	e8 dc 10 00 00       	call   3912 <unlink>
    2836:	83 c4 10             	add    $0x10,%esp
    2839:	85 c0                	test   %eax,%eax
    283b:	0f 84 c7 00 00 00    	je     2908 <rmdot+0x138>
  if(chdir("/") != 0){
    2841:	83 ec 0c             	sub    $0xc,%esp
    2844:	68 79 3d 00 00       	push   $0x3d79
    2849:	e8 e4 10 00 00       	call   3932 <chdir>
    284e:	83 c4 10             	add    $0x10,%esp
    2851:	85 c0                	test   %eax,%eax
    2853:	0f 85 9c 00 00 00    	jne    28f5 <rmdot+0x125>
  if(unlink("dots/.") == 0){
    2859:	83 ec 0c             	sub    $0xc,%esp
    285c:	68 43 49 00 00       	push   $0x4943
    2861:	e8 ac 10 00 00       	call   3912 <unlink>
    2866:	83 c4 10             	add    $0x10,%esp
    2869:	85 c0                	test   %eax,%eax
    286b:	74 75                	je     28e2 <rmdot+0x112>
  if(unlink("dots/..") == 0){
    286d:	83 ec 0c             	sub    $0xc,%esp
    2870:	68 61 49 00 00       	push   $0x4961
    2875:	e8 98 10 00 00       	call   3912 <unlink>
    287a:	83 c4 10             	add    $0x10,%esp
    287d:	85 c0                	test   %eax,%eax
    287f:	74 4e                	je     28cf <rmdot+0xff>
  if(unlink("dots") != 0){
    2881:	83 ec 0c             	sub    $0xc,%esp
    2884:	68 fb 48 00 00       	push   $0x48fb
    2889:	e8 84 10 00 00       	call   3912 <unlink>
    288e:	83 c4 10             	add    $0x10,%esp
    2891:	85 c0                	test   %eax,%eax
    2893:	75 27                	jne    28bc <rmdot+0xec>
  printf(1, "rmdot ok\n");
    2895:	83 ec 08             	sub    $0x8,%esp
    2898:	68 96 49 00 00       	push   $0x4996
    289d:	6a 01                	push   $0x1
    289f:	e8 6c 11 00 00       	call   3a10 <printf>
}
    28a4:	83 c4 10             	add    $0x10,%esp
    28a7:	c9                   	leave  
    28a8:	c3                   	ret    
    printf(1, "mkdir dots failed\n");
    28a9:	50                   	push   %eax
    28aa:	50                   	push   %eax
    28ab:	68 00 49 00 00       	push   $0x4900
    28b0:	6a 01                	push   $0x1
    28b2:	e8 59 11 00 00       	call   3a10 <printf>
    exit();
    28b7:	e8 06 10 00 00       	call   38c2 <exit>
    printf(1, "unlink dots failed!\n");
    28bc:	50                   	push   %eax
    28bd:	50                   	push   %eax
    28be:	68 81 49 00 00       	push   $0x4981
    28c3:	6a 01                	push   $0x1
    28c5:	e8 46 11 00 00       	call   3a10 <printf>
    exit();
    28ca:	e8 f3 0f 00 00       	call   38c2 <exit>
    printf(1, "unlink dots/.. worked!\n");
    28cf:	52                   	push   %edx
    28d0:	52                   	push   %edx
    28d1:	68 69 49 00 00       	push   $0x4969
    28d6:	6a 01                	push   $0x1
    28d8:	e8 33 11 00 00       	call   3a10 <printf>
    exit();
    28dd:	e8 e0 0f 00 00       	call   38c2 <exit>
    printf(1, "unlink dots/. worked!\n");
    28e2:	51                   	push   %ecx
    28e3:	51                   	push   %ecx
    28e4:	68 4a 49 00 00       	push   $0x494a
    28e9:	6a 01                	push   $0x1
    28eb:	e8 20 11 00 00       	call   3a10 <printf>
    exit();
    28f0:	e8 cd 0f 00 00       	call   38c2 <exit>
    printf(1, "chdir / failed\n");
    28f5:	50                   	push   %eax
    28f6:	50                   	push   %eax
    28f7:	68 7b 3d 00 00       	push   $0x3d7b
    28fc:	6a 01                	push   $0x1
    28fe:	e8 0d 11 00 00       	call   3a10 <printf>
    exit();
    2903:	e8 ba 0f 00 00       	call   38c2 <exit>
    printf(1, "rm .. worked!\n");
    2908:	50                   	push   %eax
    2909:	50                   	push   %eax
    290a:	68 34 49 00 00       	push   $0x4934
    290f:	6a 01                	push   $0x1
    2911:	e8 fa 10 00 00       	call   3a10 <printf>
    exit();
    2916:	e8 a7 0f 00 00       	call   38c2 <exit>
    printf(1, "rm . worked!\n");
    291b:	50                   	push   %eax
    291c:	50                   	push   %eax
    291d:	68 26 49 00 00       	push   $0x4926
    2922:	6a 01                	push   $0x1
    2924:	e8 e7 10 00 00       	call   3a10 <printf>
    exit();
    2929:	e8 94 0f 00 00       	call   38c2 <exit>
    printf(1, "chdir dots failed\n");
    292e:	50                   	push   %eax
    292f:	50                   	push   %eax
    2930:	68 13 49 00 00       	push   $0x4913
    2935:	6a 01                	push   $0x1
    2937:	e8 d4 10 00 00       	call   3a10 <printf>
    exit();
    293c:	e8 81 0f 00 00       	call   38c2 <exit>
    2941:	eb 0d                	jmp    2950 <dirfile>
    2943:	90                   	nop
    2944:	90                   	nop
    2945:	90                   	nop
    2946:	90                   	nop
    2947:	90                   	nop
    2948:	90                   	nop
    2949:	90                   	nop
    294a:	90                   	nop
    294b:	90                   	nop
    294c:	90                   	nop
    294d:	90                   	nop
    294e:	90                   	nop
    294f:	90                   	nop

00002950 <dirfile>:
{
    2950:	55                   	push   %ebp
    2951:	89 e5                	mov    %esp,%ebp
    2953:	53                   	push   %ebx
    2954:	83 ec 0c             	sub    $0xc,%esp
  printf(1, "dir vs file\n");
    2957:	68 a0 49 00 00       	push   $0x49a0
    295c:	6a 01                	push   $0x1
    295e:	e8 ad 10 00 00       	call   3a10 <printf>
  fd = open("dirfile", O_CREATE);
    2963:	59                   	pop    %ecx
    2964:	5b                   	pop    %ebx
    2965:	68 00 02 00 00       	push   $0x200
    296a:	68 ad 49 00 00       	push   $0x49ad
    296f:	e8 8e 0f 00 00       	call   3902 <open>
  if(fd < 0){
    2974:	83 c4 10             	add    $0x10,%esp
    2977:	85 c0                	test   %eax,%eax
    2979:	0f 88 43 01 00 00    	js     2ac2 <dirfile+0x172>
  close(fd);
    297f:	83 ec 0c             	sub    $0xc,%esp
    2982:	50                   	push   %eax
    2983:	e8 62 0f 00 00       	call   38ea <close>
  if(chdir("dirfile") == 0){
    2988:	c7 04 24 ad 49 00 00 	movl   $0x49ad,(%esp)
    298f:	e8 9e 0f 00 00       	call   3932 <chdir>
    2994:	83 c4 10             	add    $0x10,%esp
    2997:	85 c0                	test   %eax,%eax
    2999:	0f 84 10 01 00 00    	je     2aaf <dirfile+0x15f>
  fd = open("dirfile/xx", 0);
    299f:	83 ec 08             	sub    $0x8,%esp
    29a2:	6a 00                	push   $0x0
    29a4:	68 e6 49 00 00       	push   $0x49e6
    29a9:	e8 54 0f 00 00       	call   3902 <open>
  if(fd >= 0){
    29ae:	83 c4 10             	add    $0x10,%esp
    29b1:	85 c0                	test   %eax,%eax
    29b3:	0f 89 e3 00 00 00    	jns    2a9c <dirfile+0x14c>
  fd = open("dirfile/xx", O_CREATE);
    29b9:	83 ec 08             	sub    $0x8,%esp
    29bc:	68 00 02 00 00       	push   $0x200
    29c1:	68 e6 49 00 00       	push   $0x49e6
    29c6:	e8 37 0f 00 00       	call   3902 <open>
  if(fd >= 0){
    29cb:	83 c4 10             	add    $0x10,%esp
    29ce:	85 c0                	test   %eax,%eax
    29d0:	0f 89 c6 00 00 00    	jns    2a9c <dirfile+0x14c>
  if(mkdir("dirfile/xx") == 0){
    29d6:	83 ec 0c             	sub    $0xc,%esp
    29d9:	68 e6 49 00 00       	push   $0x49e6
    29de:	e8 47 0f 00 00       	call   392a <mkdir>
    29e3:	83 c4 10             	add    $0x10,%esp
    29e6:	85 c0                	test   %eax,%eax
    29e8:	0f 84 46 01 00 00    	je     2b34 <dirfile+0x1e4>
  if(unlink("dirfile/xx") == 0){
    29ee:	83 ec 0c             	sub    $0xc,%esp
    29f1:	68 e6 49 00 00       	push   $0x49e6
    29f6:	e8 17 0f 00 00       	call   3912 <unlink>
    29fb:	83 c4 10             	add    $0x10,%esp
    29fe:	85 c0                	test   %eax,%eax
    2a00:	0f 84 1b 01 00 00    	je     2b21 <dirfile+0x1d1>
  if(link("README", "dirfile/xx") == 0){
    2a06:	83 ec 08             	sub    $0x8,%esp
    2a09:	68 e6 49 00 00       	push   $0x49e6
    2a0e:	68 4a 4a 00 00       	push   $0x4a4a
    2a13:	e8 0a 0f 00 00       	call   3922 <link>
    2a18:	83 c4 10             	add    $0x10,%esp
    2a1b:	85 c0                	test   %eax,%eax
    2a1d:	0f 84 eb 00 00 00    	je     2b0e <dirfile+0x1be>
  if(unlink("dirfile") != 0){
    2a23:	83 ec 0c             	sub    $0xc,%esp
    2a26:	68 ad 49 00 00       	push   $0x49ad
    2a2b:	e8 e2 0e 00 00       	call   3912 <unlink>
    2a30:	83 c4 10             	add    $0x10,%esp
    2a33:	85 c0                	test   %eax,%eax
    2a35:	0f 85 c0 00 00 00    	jne    2afb <dirfile+0x1ab>
  fd = open(".", O_RDWR);
    2a3b:	83 ec 08             	sub    $0x8,%esp
    2a3e:	6a 02                	push   $0x2
    2a40:	68 a6 45 00 00       	push   $0x45a6
    2a45:	e8 b8 0e 00 00       	call   3902 <open>
  if(fd >= 0){
    2a4a:	83 c4 10             	add    $0x10,%esp
    2a4d:	85 c0                	test   %eax,%eax
    2a4f:	0f 89 93 00 00 00    	jns    2ae8 <dirfile+0x198>
  fd = open(".", 0);
    2a55:	83 ec 08             	sub    $0x8,%esp
    2a58:	6a 00                	push   $0x0
    2a5a:	68 a6 45 00 00       	push   $0x45a6
    2a5f:	e8 9e 0e 00 00       	call   3902 <open>
  if(write(fd, "x", 1) > 0){
    2a64:	83 c4 0c             	add    $0xc,%esp
  fd = open(".", 0);
    2a67:	89 c3                	mov    %eax,%ebx
  if(write(fd, "x", 1) > 0){
    2a69:	6a 01                	push   $0x1
    2a6b:	68 89 46 00 00       	push   $0x4689
    2a70:	50                   	push   %eax
    2a71:	e8 6c 0e 00 00       	call   38e2 <write>
    2a76:	83 c4 10             	add    $0x10,%esp
    2a79:	85 c0                	test   %eax,%eax
    2a7b:	7f 58                	jg     2ad5 <dirfile+0x185>
  close(fd);
    2a7d:	83 ec 0c             	sub    $0xc,%esp
    2a80:	53                   	push   %ebx
    2a81:	e8 64 0e 00 00       	call   38ea <close>
  printf(1, "dir vs file OK\n");
    2a86:	58                   	pop    %eax
    2a87:	5a                   	pop    %edx
    2a88:	68 7d 4a 00 00       	push   $0x4a7d
    2a8d:	6a 01                	push   $0x1
    2a8f:	e8 7c 0f 00 00       	call   3a10 <printf>
}
    2a94:	83 c4 10             	add    $0x10,%esp
    2a97:	8b 5d fc             	mov    -0x4(%ebp),%ebx
    2a9a:	c9                   	leave  
    2a9b:	c3                   	ret    
    printf(1, "create dirfile/xx succeeded!\n");
    2a9c:	50                   	push   %eax
    2a9d:	50                   	push   %eax
    2a9e:	68 f1 49 00 00       	push   $0x49f1
    2aa3:	6a 01                	push   $0x1
    2aa5:	e8 66 0f 00 00       	call   3a10 <printf>
    exit();
    2aaa:	e8 13 0e 00 00       	call   38c2 <exit>
    printf(1, "chdir dirfile succeeded!\n");
    2aaf:	50                   	push   %eax
    2ab0:	50                   	push   %eax
    2ab1:	68 cc 49 00 00       	push   $0x49cc
    2ab6:	6a 01                	push   $0x1
    2ab8:	e8 53 0f 00 00       	call   3a10 <printf>
    exit();
    2abd:	e8 00 0e 00 00       	call   38c2 <exit>
    printf(1, "create dirfile failed\n");
    2ac2:	52                   	push   %edx
    2ac3:	52                   	push   %edx
    2ac4:	68 b5 49 00 00       	push   $0x49b5
    2ac9:	6a 01                	push   $0x1
    2acb:	e8 40 0f 00 00       	call   3a10 <printf>
    exit();
    2ad0:	e8 ed 0d 00 00       	call   38c2 <exit>
    printf(1, "write . succeeded!\n");
    2ad5:	51                   	push   %ecx
    2ad6:	51                   	push   %ecx
    2ad7:	68 69 4a 00 00       	push   $0x4a69
    2adc:	6a 01                	push   $0x1
    2ade:	e8 2d 0f 00 00       	call   3a10 <printf>
    exit();
    2ae3:	e8 da 0d 00 00       	call   38c2 <exit>
    printf(1, "open . for writing succeeded!\n");
    2ae8:	53                   	push   %ebx
    2ae9:	53                   	push   %ebx
    2aea:	68 60 52 00 00       	push   $0x5260
    2aef:	6a 01                	push   $0x1
    2af1:	e8 1a 0f 00 00       	call   3a10 <printf>
    exit();
    2af6:	e8 c7 0d 00 00       	call   38c2 <exit>
    printf(1, "unlink dirfile failed!\n");
    2afb:	50                   	push   %eax
    2afc:	50                   	push   %eax
    2afd:	68 51 4a 00 00       	push   $0x4a51
    2b02:	6a 01                	push   $0x1
    2b04:	e8 07 0f 00 00       	call   3a10 <printf>
    exit();
    2b09:	e8 b4 0d 00 00       	call   38c2 <exit>
    printf(1, "link to dirfile/xx succeeded!\n");
    2b0e:	50                   	push   %eax
    2b0f:	50                   	push   %eax
    2b10:	68 40 52 00 00       	push   $0x5240
    2b15:	6a 01                	push   $0x1
    2b17:	e8 f4 0e 00 00       	call   3a10 <printf>
    exit();
    2b1c:	e8 a1 0d 00 00       	call   38c2 <exit>
    printf(1, "unlink dirfile/xx succeeded!\n");
    2b21:	50                   	push   %eax
    2b22:	50                   	push   %eax
    2b23:	68 2c 4a 00 00       	push   $0x4a2c
    2b28:	6a 01                	push   $0x1
    2b2a:	e8 e1 0e 00 00       	call   3a10 <printf>
    exit();
    2b2f:	e8 8e 0d 00 00       	call   38c2 <exit>
    printf(1, "mkdir dirfile/xx succeeded!\n");
    2b34:	50                   	push   %eax
    2b35:	50                   	push   %eax
    2b36:	68 0f 4a 00 00       	push   $0x4a0f
    2b3b:	6a 01                	push   $0x1
    2b3d:	e8 ce 0e 00 00       	call   3a10 <printf>
    exit();
    2b42:	e8 7b 0d 00 00       	call   38c2 <exit>
    2b47:	89 f6                	mov    %esi,%esi
    2b49:	8d bc 27 00 00 00 00 	lea    0x0(%edi,%eiz,1),%edi

00002b50 <iref>:
{
    2b50:	55                   	push   %ebp
    2b51:	89 e5                	mov    %esp,%ebp
    2b53:	53                   	push   %ebx
  printf(1, "empty file name\n");
    2b54:	bb 33 00 00 00       	mov    $0x33,%ebx
{
    2b59:	83 ec 0c             	sub    $0xc,%esp
  printf(1, "empty file name\n");
    2b5c:	68 8d 4a 00 00       	push   $0x4a8d
    2b61:	6a 01                	push   $0x1
    2b63:	e8 a8 0e 00 00       	call   3a10 <printf>
    2b68:	83 c4 10             	add    $0x10,%esp
    2b6b:	90                   	nop
    2b6c:	8d 74 26 00          	lea    0x0(%esi,%eiz,1),%esi
    if(mkdir("irefd") != 0){
    2b70:	83 ec 0c             	sub    $0xc,%esp
    2b73:	68 9e 4a 00 00       	push   $0x4a9e
    2b78:	e8 ad 0d 00 00       	call   392a <mkdir>
    2b7d:	83 c4 10             	add    $0x10,%esp
    2b80:	85 c0                	test   %eax,%eax
    2b82:	0f 85 bb 00 00 00    	jne    2c43 <iref+0xf3>
    if(chdir("irefd") != 0){
    2b88:	83 ec 0c             	sub    $0xc,%esp
    2b8b:	68 9e 4a 00 00       	push   $0x4a9e
    2b90:	e8 9d 0d 00 00       	call   3932 <chdir>
    2b95:	83 c4 10             	add    $0x10,%esp
    2b98:	85 c0                	test   %eax,%eax
    2b9a:	0f 85 b7 00 00 00    	jne    2c57 <iref+0x107>
    mkdir("");
    2ba0:	83 ec 0c             	sub    $0xc,%esp
    2ba3:	68 53 41 00 00       	push   $0x4153
    2ba8:	e8 7d 0d 00 00       	call   392a <mkdir>
    link("README", "");
    2bad:	59                   	pop    %ecx
    2bae:	58                   	pop    %eax
    2baf:	68 53 41 00 00       	push   $0x4153
    2bb4:	68 4a 4a 00 00       	push   $0x4a4a
    2bb9:	e8 64 0d 00 00       	call   3922 <link>
    fd = open("", O_CREATE);
    2bbe:	58                   	pop    %eax
    2bbf:	5a                   	pop    %edx
    2bc0:	68 00 02 00 00       	push   $0x200
    2bc5:	68 53 41 00 00       	push   $0x4153
    2bca:	e8 33 0d 00 00       	call   3902 <open>
    if(fd >= 0)
    2bcf:	83 c4 10             	add    $0x10,%esp
    2bd2:	85 c0                	test   %eax,%eax
    2bd4:	78 0c                	js     2be2 <iref+0x92>
      close(fd);
    2bd6:	83 ec 0c             	sub    $0xc,%esp
    2bd9:	50                   	push   %eax
    2bda:	e8 0b 0d 00 00       	call   38ea <close>
    2bdf:	83 c4 10             	add    $0x10,%esp
    fd = open("xx", O_CREATE);
    2be2:	83 ec 08             	sub    $0x8,%esp
    2be5:	68 00 02 00 00       	push   $0x200
    2bea:	68 88 46 00 00       	push   $0x4688
    2bef:	e8 0e 0d 00 00       	call   3902 <open>
    if(fd >= 0)
    2bf4:	83 c4 10             	add    $0x10,%esp
    2bf7:	85 c0                	test   %eax,%eax
    2bf9:	78 0c                	js     2c07 <iref+0xb7>
      close(fd);
    2bfb:	83 ec 0c             	sub    $0xc,%esp
    2bfe:	50                   	push   %eax
    2bff:	e8 e6 0c 00 00       	call   38ea <close>
    2c04:	83 c4 10             	add    $0x10,%esp
    unlink("xx");
    2c07:	83 ec 0c             	sub    $0xc,%esp
    2c0a:	68 88 46 00 00       	push   $0x4688
    2c0f:	e8 fe 0c 00 00       	call   3912 <unlink>
  for(i = 0; i < 50 + 1; i++){
    2c14:	83 c4 10             	add    $0x10,%esp
    2c17:	83 eb 01             	sub    $0x1,%ebx
    2c1a:	0f 85 50 ff ff ff    	jne    2b70 <iref+0x20>
  chdir("/");
    2c20:	83 ec 0c             	sub    $0xc,%esp
    2c23:	68 79 3d 00 00       	push   $0x3d79
    2c28:	e8 05 0d 00 00       	call   3932 <chdir>
  printf(1, "empty file name OK\n");
    2c2d:	58                   	pop    %eax
    2c2e:	5a                   	pop    %edx
    2c2f:	68 cc 4a 00 00       	push   $0x4acc
    2c34:	6a 01                	push   $0x1
    2c36:	e8 d5 0d 00 00       	call   3a10 <printf>
}
    2c3b:	83 c4 10             	add    $0x10,%esp
    2c3e:	8b 5d fc             	mov    -0x4(%ebp),%ebx
    2c41:	c9                   	leave  
    2c42:	c3                   	ret    
      printf(1, "mkdir irefd failed\n");
    2c43:	83 ec 08             	sub    $0x8,%esp
    2c46:	68 a4 4a 00 00       	push   $0x4aa4
    2c4b:	6a 01                	push   $0x1
    2c4d:	e8 be 0d 00 00       	call   3a10 <printf>
      exit();
    2c52:	e8 6b 0c 00 00       	call   38c2 <exit>
      printf(1, "chdir irefd failed\n");
    2c57:	83 ec 08             	sub    $0x8,%esp
    2c5a:	68 b8 4a 00 00       	push   $0x4ab8
    2c5f:	6a 01                	push   $0x1
    2c61:	e8 aa 0d 00 00       	call   3a10 <printf>
      exit();
    2c66:	e8 57 0c 00 00       	call   38c2 <exit>
    2c6b:	90                   	nop
    2c6c:	8d 74 26 00          	lea    0x0(%esi,%eiz,1),%esi

00002c70 <forktest>:
{
    2c70:	55                   	push   %ebp
    2c71:	89 e5                	mov    %esp,%ebp
    2c73:	53                   	push   %ebx
  for(n=0; n<1000; n++){
    2c74:	31 db                	xor    %ebx,%ebx
{
    2c76:	83 ec 0c             	sub    $0xc,%esp
  printf(1, "fork test\n");
    2c79:	68 e0 4a 00 00       	push   $0x4ae0
    2c7e:	6a 01                	push   $0x1
    2c80:	e8 8b 0d 00 00       	call   3a10 <printf>
    2c85:	83 c4 10             	add    $0x10,%esp
    2c88:	eb 13                	jmp    2c9d <forktest+0x2d>
    2c8a:	8d b6 00 00 00 00    	lea    0x0(%esi),%esi
    if(pid == 0)
    2c90:	74 62                	je     2cf4 <forktest+0x84>
  for(n=0; n<1000; n++){
    2c92:	83 c3 01             	add    $0x1,%ebx
    2c95:	81 fb e8 03 00 00    	cmp    $0x3e8,%ebx
    2c9b:	74 43                	je     2ce0 <forktest+0x70>
    pid = fork();
    2c9d:	e8 18 0c 00 00       	call   38ba <fork>
    if(pid < 0)
    2ca2:	85 c0                	test   %eax,%eax
    2ca4:	79 ea                	jns    2c90 <forktest+0x20>
  for(; n > 0; n--){
    2ca6:	85 db                	test   %ebx,%ebx
    2ca8:	74 14                	je     2cbe <forktest+0x4e>
    2caa:	8d b6 00 00 00 00    	lea    0x0(%esi),%esi
    if(wait() < 0){
    2cb0:	e8 15 0c 00 00       	call   38ca <wait>
    2cb5:	85 c0                	test   %eax,%eax
    2cb7:	78 40                	js     2cf9 <forktest+0x89>
  for(; n > 0; n--){
    2cb9:	83 eb 01             	sub    $0x1,%ebx
    2cbc:	75 f2                	jne    2cb0 <forktest+0x40>
  if(wait() != -1){
    2cbe:	e8 07 0c 00 00       	call   38ca <wait>
    2cc3:	83 f8 ff             	cmp    $0xffffffff,%eax
    2cc6:	75 45                	jne    2d0d <forktest+0x9d>
  printf(1, "fork test OK\n");
    2cc8:	83 ec 08             	sub    $0x8,%esp
    2ccb:	68 12 4b 00 00       	push   $0x4b12
    2cd0:	6a 01                	push   $0x1
    2cd2:	e8 39 0d 00 00       	call   3a10 <printf>
}
    2cd7:	8b 5d fc             	mov    -0x4(%ebp),%ebx
    2cda:	c9                   	leave  
    2cdb:	c3                   	ret    
    2cdc:	8d 74 26 00          	lea    0x0(%esi,%eiz,1),%esi
    printf(1, "fork claimed to work 1000 times!\n");
    2ce0:	83 ec 08             	sub    $0x8,%esp
    2ce3:	68 80 52 00 00       	push   $0x5280
    2ce8:	6a 01                	push   $0x1
    2cea:	e8 21 0d 00 00       	call   3a10 <printf>
    exit();
    2cef:	e8 ce 0b 00 00       	call   38c2 <exit>
      exit();
    2cf4:	e8 c9 0b 00 00       	call   38c2 <exit>
      printf(1, "wait stopped early\n");
    2cf9:	83 ec 08             	sub    $0x8,%esp
    2cfc:	68 eb 4a 00 00       	push   $0x4aeb
    2d01:	6a 01                	push   $0x1
    2d03:	e8 08 0d 00 00       	call   3a10 <printf>
      exit();
    2d08:	e8 b5 0b 00 00       	call   38c2 <exit>
    printf(1, "wait got too many\n");
    2d0d:	83 ec 08             	sub    $0x8,%esp
    2d10:	68 ff 4a 00 00       	push   $0x4aff
    2d15:	6a 01                	push   $0x1
    2d17:	e8 f4 0c 00 00       	call   3a10 <printf>
    exit();
    2d1c:	e8 a1 0b 00 00       	call   38c2 <exit>
    2d21:	eb 0d                	jmp    2d30 <sbrktest>
    2d23:	90                   	nop
    2d24:	90                   	nop
    2d25:	90                   	nop
    2d26:	90                   	nop
    2d27:	90                   	nop
    2d28:	90                   	nop
    2d29:	90                   	nop
    2d2a:	90                   	nop
    2d2b:	90                   	nop
    2d2c:	90                   	nop
    2d2d:	90                   	nop
    2d2e:	90                   	nop
    2d2f:	90                   	nop

00002d30 <sbrktest>:
{
    2d30:	55                   	push   %ebp
    2d31:	89 e5                	mov    %esp,%ebp
    2d33:	57                   	push   %edi
    2d34:	56                   	push   %esi
    2d35:	53                   	push   %ebx
  for(i = 0; i < 5000; i++){
    2d36:	31 f6                	xor    %esi,%esi
{
    2d38:	83 ec 64             	sub    $0x64,%esp
  printf(stdout, "sbrk test\n");
    2d3b:	68 20 4b 00 00       	push   $0x4b20
    2d40:	ff 35 c8 5d 00 00    	pushl  0x5dc8
    2d46:	e8 c5 0c 00 00       	call   3a10 <printf>
  oldbrk = sbrk(0);
    2d4b:	c7 04 24 00 00 00 00 	movl   $0x0,(%esp)
    2d52:	e8 f3 0b 00 00       	call   394a <sbrk>
  a = sbrk(0);
    2d57:	c7 04 24 00 00 00 00 	movl   $0x0,(%esp)
  oldbrk = sbrk(0);
    2d5e:	89 c7                	mov    %eax,%edi
  a = sbrk(0);
    2d60:	e8 e5 0b 00 00       	call   394a <sbrk>
    2d65:	83 c4 10             	add    $0x10,%esp
    2d68:	89 c3                	mov    %eax,%ebx
    2d6a:	eb 06                	jmp    2d72 <sbrktest+0x42>
    2d6c:	8d 74 26 00          	lea    0x0(%esi,%eiz,1),%esi
    a = b + 1;
    2d70:	89 c3                	mov    %eax,%ebx
    b = sbrk(1);
    2d72:	83 ec 0c             	sub    $0xc,%esp
    2d75:	6a 01                	push   $0x1
    2d77:	e8 ce 0b 00 00       	call   394a <sbrk>
    if(b != a){
    2d7c:	83 c4 10             	add    $0x10,%esp
    2d7f:	39 d8                	cmp    %ebx,%eax
    2d81:	0f 85 83 02 00 00    	jne    300a <sbrktest+0x2da>
  for(i = 0; i < 5000; i++){
    2d87:	83 c6 01             	add    $0x1,%esi
    *b = 1;
    2d8a:	c6 03 01             	movb   $0x1,(%ebx)
    a = b + 1;
    2d8d:	8d 43 01             	lea    0x1(%ebx),%eax
  for(i = 0; i < 5000; i++){
    2d90:	81 fe 88 13 00 00    	cmp    $0x1388,%esi
    2d96:	75 d8                	jne    2d70 <sbrktest+0x40>
  pid = fork();
    2d98:	e8 1d 0b 00 00       	call   38ba <fork>
  if(pid < 0){
    2d9d:	85 c0                	test   %eax,%eax
  pid = fork();
    2d9f:	89 c6                	mov    %eax,%esi
  if(pid < 0){
    2da1:	0f 88 91 03 00 00    	js     3138 <sbrktest+0x408>
  c = sbrk(1);
    2da7:	83 ec 0c             	sub    $0xc,%esp
  if(c != a + 1){
    2daa:	83 c3 02             	add    $0x2,%ebx
  c = sbrk(1);
    2dad:	6a 01                	push   $0x1
    2daf:	e8 96 0b 00 00       	call   394a <sbrk>
  c = sbrk(1);
    2db4:	c7 04 24 01 00 00 00 	movl   $0x1,(%esp)
    2dbb:	e8 8a 0b 00 00       	call   394a <sbrk>
  if(c != a + 1){
    2dc0:	83 c4 10             	add    $0x10,%esp
    2dc3:	39 d8                	cmp    %ebx,%eax
    2dc5:	0f 85 55 03 00 00    	jne    3120 <sbrktest+0x3f0>
  if(pid == 0)
    2dcb:	85 f6                	test   %esi,%esi
    2dcd:	0f 84 48 03 00 00    	je     311b <sbrktest+0x3eb>
  wait();
    2dd3:	e8 f2 0a 00 00       	call   38ca <wait>
  a = sbrk(0);
    2dd8:	83 ec 0c             	sub    $0xc,%esp
    2ddb:	6a 00                	push   $0x0
    2ddd:	e8 68 0b 00 00       	call   394a <sbrk>
    2de2:	89 c3                	mov    %eax,%ebx
  amt = (BIG) - (uint)a;
    2de4:	b8 00 00 40 06       	mov    $0x6400000,%eax
    2de9:	29 d8                	sub    %ebx,%eax
  p = sbrk(amt);
    2deb:	89 04 24             	mov    %eax,(%esp)
    2dee:	e8 57 0b 00 00       	call   394a <sbrk>
  if (p != a) {
    2df3:	83 c4 10             	add    $0x10,%esp
    2df6:	39 c3                	cmp    %eax,%ebx
    2df8:	0f 85 05 03 00 00    	jne    3103 <sbrktest+0x3d3>
  a = sbrk(0);
    2dfe:	83 ec 0c             	sub    $0xc,%esp
  *lastaddr = 99;
    2e01:	c6 05 ff ff 3f 06 63 	movb   $0x63,0x63fffff
  a = sbrk(0);
    2e08:	6a 00                	push   $0x0
    2e0a:	e8 3b 0b 00 00       	call   394a <sbrk>
  c = sbrk(-4096);
    2e0f:	c7 04 24 00 f0 ff ff 	movl   $0xfffff000,(%esp)
  a = sbrk(0);
    2e16:	89 c3                	mov    %eax,%ebx
  c = sbrk(-4096);
    2e18:	e8 2d 0b 00 00       	call   394a <sbrk>
  if(c == (char*)0xffffffff){
    2e1d:	83 c4 10             	add    $0x10,%esp
    2e20:	83 f8 ff             	cmp    $0xffffffff,%eax
    2e23:	0f 84 c2 02 00 00    	je     30eb <sbrktest+0x3bb>
  c = sbrk(0);
    2e29:	83 ec 0c             	sub    $0xc,%esp
    2e2c:	6a 00                	push   $0x0
    2e2e:	e8 17 0b 00 00       	call   394a <sbrk>
  if(c != a - 4096){
    2e33:	8d 93 00 f0 ff ff    	lea    -0x1000(%ebx),%edx
    2e39:	83 c4 10             	add    $0x10,%esp
    2e3c:	39 d0                	cmp    %edx,%eax
    2e3e:	0f 85 90 02 00 00    	jne    30d4 <sbrktest+0x3a4>
  a = sbrk(0);
    2e44:	83 ec 0c             	sub    $0xc,%esp
    2e47:	6a 00                	push   $0x0
    2e49:	e8 fc 0a 00 00       	call   394a <sbrk>
    2e4e:	89 c3                	mov    %eax,%ebx
  c = sbrk(4096);
    2e50:	c7 04 24 00 10 00 00 	movl   $0x1000,(%esp)
    2e57:	e8 ee 0a 00 00       	call   394a <sbrk>
  if(c != a || sbrk(0) != a + 4096){
    2e5c:	83 c4 10             	add    $0x10,%esp
    2e5f:	39 c3                	cmp    %eax,%ebx
  c = sbrk(4096);
    2e61:	89 c6                	mov    %eax,%esi
  if(c != a || sbrk(0) != a + 4096){
    2e63:	0f 85 54 02 00 00    	jne    30bd <sbrktest+0x38d>
    2e69:	83 ec 0c             	sub    $0xc,%esp
    2e6c:	6a 00                	push   $0x0
    2e6e:	e8 d7 0a 00 00       	call   394a <sbrk>
    2e73:	8d 93 00 10 00 00    	lea    0x1000(%ebx),%edx
    2e79:	83 c4 10             	add    $0x10,%esp
    2e7c:	39 d0                	cmp    %edx,%eax
    2e7e:	0f 85 39 02 00 00    	jne    30bd <sbrktest+0x38d>
  if(*lastaddr == 99){
    2e84:	80 3d ff ff 3f 06 63 	cmpb   $0x63,0x63fffff
    2e8b:	0f 84 14 02 00 00    	je     30a5 <sbrktest+0x375>
  a = sbrk(0);
    2e91:	83 ec 0c             	sub    $0xc,%esp
    2e94:	6a 00                	push   $0x0
    2e96:	e8 af 0a 00 00       	call   394a <sbrk>
  c = sbrk(-(sbrk(0) - oldbrk));
    2e9b:	c7 04 24 00 00 00 00 	movl   $0x0,(%esp)
  a = sbrk(0);
    2ea2:	89 c3                	mov    %eax,%ebx
  c = sbrk(-(sbrk(0) - oldbrk));
    2ea4:	e8 a1 0a 00 00       	call   394a <sbrk>
    2ea9:	89 f9                	mov    %edi,%ecx
    2eab:	29 c1                	sub    %eax,%ecx
    2ead:	89 0c 24             	mov    %ecx,(%esp)
    2eb0:	e8 95 0a 00 00       	call   394a <sbrk>
  if(c != a){
    2eb5:	83 c4 10             	add    $0x10,%esp
    2eb8:	39 c3                	cmp    %eax,%ebx
    2eba:	0f 85 ce 01 00 00    	jne    308e <sbrktest+0x35e>
    2ec0:	bb 00 00 00 80       	mov    $0x80000000,%ebx
    2ec5:	8d 76 00             	lea    0x0(%esi),%esi
    ppid = getpid();
    2ec8:	e8 75 0a 00 00       	call   3942 <getpid>
    2ecd:	89 c6                	mov    %eax,%esi
    pid = fork();
    2ecf:	e8 e6 09 00 00       	call   38ba <fork>
    if(pid < 0){
    2ed4:	85 c0                	test   %eax,%eax
    2ed6:	0f 88 9a 01 00 00    	js     3076 <sbrktest+0x346>
    if(pid == 0){
    2edc:	0f 84 72 01 00 00    	je     3054 <sbrktest+0x324>
  for(a = (char*)(KERNBASE); a < (char*) (KERNBASE+2000000); a += 50000){
    2ee2:	81 c3 50 c3 00 00    	add    $0xc350,%ebx
    wait();
    2ee8:	e8 dd 09 00 00       	call   38ca <wait>
  for(a = (char*)(KERNBASE); a < (char*) (KERNBASE+2000000); a += 50000){
    2eed:	81 fb 80 84 1e 80    	cmp    $0x801e8480,%ebx
    2ef3:	75 d3                	jne    2ec8 <sbrktest+0x198>
  if(pipe(fds) != 0){
    2ef5:	8d 45 b8             	lea    -0x48(%ebp),%eax
    2ef8:	83 ec 0c             	sub    $0xc,%esp
    2efb:	50                   	push   %eax
    2efc:	e8 d1 09 00 00       	call   38d2 <pipe>
    2f01:	83 c4 10             	add    $0x10,%esp
    2f04:	85 c0                	test   %eax,%eax
    2f06:	0f 85 34 01 00 00    	jne    3040 <sbrktest+0x310>
    2f0c:	8d 75 c0             	lea    -0x40(%ebp),%esi
    2f0f:	89 f3                	mov    %esi,%ebx
    if((pids[i] = fork()) == 0){
    2f11:	e8 a4 09 00 00       	call   38ba <fork>
    2f16:	85 c0                	test   %eax,%eax
    2f18:	89 03                	mov    %eax,(%ebx)
    2f1a:	0f 84 a5 00 00 00    	je     2fc5 <sbrktest+0x295>
    if(pids[i] != -1)
    2f20:	83 f8 ff             	cmp    $0xffffffff,%eax
    2f23:	74 14                	je     2f39 <sbrktest+0x209>
      read(fds[0], &scratch, 1);
    2f25:	8d 45 b7             	lea    -0x49(%ebp),%eax
    2f28:	83 ec 04             	sub    $0x4,%esp
    2f2b:	6a 01                	push   $0x1
    2f2d:	50                   	push   %eax
    2f2e:	ff 75 b8             	pushl  -0x48(%ebp)
    2f31:	e8 a4 09 00 00       	call   38da <read>
    2f36:	83 c4 10             	add    $0x10,%esp
  for(i = 0; i < sizeof(pids)/sizeof(pids[0]); i++){
    2f39:	8d 45 e8             	lea    -0x18(%ebp),%eax
    2f3c:	83 c3 04             	add    $0x4,%ebx
    2f3f:	39 c3                	cmp    %eax,%ebx
    2f41:	75 ce                	jne    2f11 <sbrktest+0x1e1>
  c = sbrk(4096);
    2f43:	83 ec 0c             	sub    $0xc,%esp
    2f46:	68 00 10 00 00       	push   $0x1000
    2f4b:	e8 fa 09 00 00       	call   394a <sbrk>
    2f50:	83 c4 10             	add    $0x10,%esp
    2f53:	89 45 a4             	mov    %eax,-0x5c(%ebp)
    if(pids[i] == -1)
    2f56:	8b 06                	mov    (%esi),%eax
    2f58:	83 f8 ff             	cmp    $0xffffffff,%eax
    2f5b:	74 11                	je     2f6e <sbrktest+0x23e>
    kill(pids[i]);
    2f5d:	83 ec 0c             	sub    $0xc,%esp
    2f60:	50                   	push   %eax
    2f61:	e8 8c 09 00 00       	call   38f2 <kill>
    wait();
    2f66:	e8 5f 09 00 00       	call   38ca <wait>
    2f6b:	83 c4 10             	add    $0x10,%esp
    2f6e:	83 c6 04             	add    $0x4,%esi
  for(i = 0; i < sizeof(pids)/sizeof(pids[0]); i++){
    2f71:	39 f3                	cmp    %esi,%ebx
    2f73:	75 e1                	jne    2f56 <sbrktest+0x226>
  if(c == (char*)0xffffffff){
    2f75:	83 7d a4 ff          	cmpl   $0xffffffff,-0x5c(%ebp)
    2f79:	0f 84 a9 00 00 00    	je     3028 <sbrktest+0x2f8>
  if(sbrk(0) > oldbrk)
    2f7f:	83 ec 0c             	sub    $0xc,%esp
    2f82:	6a 00                	push   $0x0
    2f84:	e8 c1 09 00 00       	call   394a <sbrk>
    2f89:	83 c4 10             	add    $0x10,%esp
    2f8c:	39 c7                	cmp    %eax,%edi
    2f8e:	73 17                	jae    2fa7 <sbrktest+0x277>
    sbrk(-(sbrk(0) - oldbrk));
    2f90:	83 ec 0c             	sub    $0xc,%esp
    2f93:	6a 00                	push   $0x0
    2f95:	e8 b0 09 00 00       	call   394a <sbrk>
    2f9a:	29 c7                	sub    %eax,%edi
    2f9c:	89 3c 24             	mov    %edi,(%esp)
    2f9f:	e8 a6 09 00 00       	call   394a <sbrk>
    2fa4:	83 c4 10             	add    $0x10,%esp
  printf(stdout, "sbrk test OK\n");
    2fa7:	83 ec 08             	sub    $0x8,%esp
    2faa:	68 c8 4b 00 00       	push   $0x4bc8
    2faf:	ff 35 c8 5d 00 00    	pushl  0x5dc8
    2fb5:	e8 56 0a 00 00       	call   3a10 <printf>
}
    2fba:	83 c4 10             	add    $0x10,%esp
    2fbd:	8d 65 f4             	lea    -0xc(%ebp),%esp
    2fc0:	5b                   	pop    %ebx
    2fc1:	5e                   	pop    %esi
    2fc2:	5f                   	pop    %edi
    2fc3:	5d                   	pop    %ebp
    2fc4:	c3                   	ret    
      sbrk(BIG - (uint)sbrk(0));
    2fc5:	83 ec 0c             	sub    $0xc,%esp
    2fc8:	6a 00                	push   $0x0
    2fca:	e8 7b 09 00 00       	call   394a <sbrk>
    2fcf:	ba 00 00 40 06       	mov    $0x6400000,%edx
    2fd4:	29 c2                	sub    %eax,%edx
    2fd6:	89 14 24             	mov    %edx,(%esp)
    2fd9:	e8 6c 09 00 00       	call   394a <sbrk>
      write(fds[1], "x", 1);
    2fde:	83 c4 0c             	add    $0xc,%esp
    2fe1:	6a 01                	push   $0x1
    2fe3:	68 89 46 00 00       	push   $0x4689
    2fe8:	ff 75 bc             	pushl  -0x44(%ebp)
    2feb:	e8 f2 08 00 00       	call   38e2 <write>
    2ff0:	83 c4 10             	add    $0x10,%esp
    2ff3:	90                   	nop
    2ff4:	8d 74 26 00          	lea    0x0(%esi,%eiz,1),%esi
      for(;;) sleep(1000);
    2ff8:	83 ec 0c             	sub    $0xc,%esp
    2ffb:	68 e8 03 00 00       	push   $0x3e8
    3000:	e8 4d 09 00 00       	call   3952 <sleep>
    3005:	83 c4 10             	add    $0x10,%esp
    3008:	eb ee                	jmp    2ff8 <sbrktest+0x2c8>
      printf(stdout, "sbrk test failed %d %x %x\n", i, a, b);
    300a:	83 ec 0c             	sub    $0xc,%esp
    300d:	50                   	push   %eax
    300e:	53                   	push   %ebx
    300f:	56                   	push   %esi
    3010:	68 2b 4b 00 00       	push   $0x4b2b
    3015:	ff 35 c8 5d 00 00    	pushl  0x5dc8
    301b:	e8 f0 09 00 00       	call   3a10 <printf>
      exit();
    3020:	83 c4 20             	add    $0x20,%esp
    3023:	e8 9a 08 00 00       	call   38c2 <exit>
    printf(stdout, "failed sbrk leaked memory\n");
    3028:	83 ec 08             	sub    $0x8,%esp
    302b:	68 ad 4b 00 00       	push   $0x4bad
    3030:	ff 35 c8 5d 00 00    	pushl  0x5dc8
    3036:	e8 d5 09 00 00       	call   3a10 <printf>
    exit();
    303b:	e8 82 08 00 00       	call   38c2 <exit>
    printf(1, "pipe() failed\n");
    3040:	83 ec 08             	sub    $0x8,%esp
    3043:	68 69 40 00 00       	push   $0x4069
    3048:	6a 01                	push   $0x1
    304a:	e8 c1 09 00 00       	call   3a10 <printf>
    exit();
    304f:	e8 6e 08 00 00       	call   38c2 <exit>
      printf(stdout, "oops could read %x = %x\n", a, *a);
    3054:	0f be 03             	movsbl (%ebx),%eax
    3057:	50                   	push   %eax
    3058:	53                   	push   %ebx
    3059:	68 94 4b 00 00       	push   $0x4b94
    305e:	ff 35 c8 5d 00 00    	pushl  0x5dc8
    3064:	e8 a7 09 00 00       	call   3a10 <printf>
      kill(ppid);
    3069:	89 34 24             	mov    %esi,(%esp)
    306c:	e8 81 08 00 00       	call   38f2 <kill>
      exit();
    3071:	e8 4c 08 00 00       	call   38c2 <exit>
      printf(stdout, "fork failed\n");
    3076:	83 ec 08             	sub    $0x8,%esp
    3079:	68 71 4c 00 00       	push   $0x4c71
    307e:	ff 35 c8 5d 00 00    	pushl  0x5dc8
    3084:	e8 87 09 00 00       	call   3a10 <printf>
      exit();
    3089:	e8 34 08 00 00       	call   38c2 <exit>
    printf(stdout, "sbrk downsize failed, a %x c %x\n", a, c);
    308e:	50                   	push   %eax
    308f:	53                   	push   %ebx
    3090:	68 74 53 00 00       	push   $0x5374
    3095:	ff 35 c8 5d 00 00    	pushl  0x5dc8
    309b:	e8 70 09 00 00       	call   3a10 <printf>
    exit();
    30a0:	e8 1d 08 00 00       	call   38c2 <exit>
    printf(stdout, "sbrk de-allocation didn't really deallocate\n");
    30a5:	83 ec 08             	sub    $0x8,%esp
    30a8:	68 44 53 00 00       	push   $0x5344
    30ad:	ff 35 c8 5d 00 00    	pushl  0x5dc8
    30b3:	e8 58 09 00 00       	call   3a10 <printf>
    exit();
    30b8:	e8 05 08 00 00       	call   38c2 <exit>
    printf(stdout, "sbrk re-allocation failed, a %x c %x\n", a, c);
    30bd:	56                   	push   %esi
    30be:	53                   	push   %ebx
    30bf:	68 1c 53 00 00       	push   $0x531c
    30c4:	ff 35 c8 5d 00 00    	pushl  0x5dc8
    30ca:	e8 41 09 00 00       	call   3a10 <printf>
    exit();
    30cf:	e8 ee 07 00 00       	call   38c2 <exit>
    printf(stdout, "sbrk deallocation produced wrong address, a %x c %x\n", a, c);
    30d4:	50                   	push   %eax
    30d5:	53                   	push   %ebx
    30d6:	68 e4 52 00 00       	push   $0x52e4
    30db:	ff 35 c8 5d 00 00    	pushl  0x5dc8
    30e1:	e8 2a 09 00 00       	call   3a10 <printf>
    exit();
    30e6:	e8 d7 07 00 00       	call   38c2 <exit>
    printf(stdout, "sbrk could not deallocate\n");
    30eb:	83 ec 08             	sub    $0x8,%esp
    30ee:	68 79 4b 00 00       	push   $0x4b79
    30f3:	ff 35 c8 5d 00 00    	pushl  0x5dc8
    30f9:	e8 12 09 00 00       	call   3a10 <printf>
    exit();
    30fe:	e8 bf 07 00 00       	call   38c2 <exit>
    printf(stdout, "sbrk test failed to grow big address space; enough phys mem?\n");
    3103:	83 ec 08             	sub    $0x8,%esp
    3106:	68 a4 52 00 00       	push   $0x52a4
    310b:	ff 35 c8 5d 00 00    	pushl  0x5dc8
    3111:	e8 fa 08 00 00       	call   3a10 <printf>
    exit();
    3116:	e8 a7 07 00 00       	call   38c2 <exit>
    exit();
    311b:	e8 a2 07 00 00       	call   38c2 <exit>
    printf(stdout, "sbrk test failed post-fork\n");
    3120:	83 ec 08             	sub    $0x8,%esp
    3123:	68 5d 4b 00 00       	push   $0x4b5d
    3128:	ff 35 c8 5d 00 00    	pushl  0x5dc8
    312e:	e8 dd 08 00 00       	call   3a10 <printf>
    exit();
    3133:	e8 8a 07 00 00       	call   38c2 <exit>
    printf(stdout, "sbrk test fork failed\n");
    3138:	83 ec 08             	sub    $0x8,%esp
    313b:	68 46 4b 00 00       	push   $0x4b46
    3140:	ff 35 c8 5d 00 00    	pushl  0x5dc8
    3146:	e8 c5 08 00 00       	call   3a10 <printf>
    exit();
    314b:	e8 72 07 00 00       	call   38c2 <exit>

00003150 <validateint>:
{
    3150:	55                   	push   %ebp
    3151:	89 e5                	mov    %esp,%ebp
}
    3153:	5d                   	pop    %ebp
    3154:	c3                   	ret    
    3155:	8d 74 26 00          	lea    0x0(%esi,%eiz,1),%esi
    3159:	8d bc 27 00 00 00 00 	lea    0x0(%edi,%eiz,1),%edi

00003160 <validatetest>:
{
    3160:	55                   	push   %ebp
    3161:	89 e5                	mov    %esp,%ebp
    3163:	56                   	push   %esi
    3164:	53                   	push   %ebx
  for(p = 0; p <= (uint)hi; p += 4096){
    3165:	31 db                	xor    %ebx,%ebx
  printf(stdout, "validate test\n");
    3167:	83 ec 08             	sub    $0x8,%esp
    316a:	68 d6 4b 00 00       	push   $0x4bd6
    316f:	ff 35 c8 5d 00 00    	pushl  0x5dc8
    3175:	e8 96 08 00 00       	call   3a10 <printf>
    317a:	83 c4 10             	add    $0x10,%esp
    317d:	8d 76 00             	lea    0x0(%esi),%esi
    if((pid = fork()) == 0){
    3180:	e8 35 07 00 00       	call   38ba <fork>
    3185:	85 c0                	test   %eax,%eax
    3187:	89 c6                	mov    %eax,%esi
    3189:	74 63                	je     31ee <validatetest+0x8e>
    sleep(0);
    318b:	83 ec 0c             	sub    $0xc,%esp
    318e:	6a 00                	push   $0x0
    3190:	e8 bd 07 00 00       	call   3952 <sleep>
    sleep(0);
    3195:	c7 04 24 00 00 00 00 	movl   $0x0,(%esp)
    319c:	e8 b1 07 00 00       	call   3952 <sleep>
    kill(pid);
    31a1:	89 34 24             	mov    %esi,(%esp)
    31a4:	e8 49 07 00 00       	call   38f2 <kill>
    wait();
    31a9:	e8 1c 07 00 00       	call   38ca <wait>
    if(link("nosuchfile", (char*)p) != -1){
    31ae:	58                   	pop    %eax
    31af:	5a                   	pop    %edx
    31b0:	53                   	push   %ebx
    31b1:	68 e5 4b 00 00       	push   $0x4be5
    31b6:	e8 67 07 00 00       	call   3922 <link>
    31bb:	83 c4 10             	add    $0x10,%esp
    31be:	83 f8 ff             	cmp    $0xffffffff,%eax
    31c1:	75 30                	jne    31f3 <validatetest+0x93>
  for(p = 0; p <= (uint)hi; p += 4096){
    31c3:	81 c3 00 10 00 00    	add    $0x1000,%ebx
    31c9:	81 fb 00 40 11 00    	cmp    $0x114000,%ebx
    31cf:	75 af                	jne    3180 <validatetest+0x20>
  printf(stdout, "validate ok\n");
    31d1:	83 ec 08             	sub    $0x8,%esp
    31d4:	68 09 4c 00 00       	push   $0x4c09
    31d9:	ff 35 c8 5d 00 00    	pushl  0x5dc8
    31df:	e8 2c 08 00 00       	call   3a10 <printf>
}
    31e4:	83 c4 10             	add    $0x10,%esp
    31e7:	8d 65 f8             	lea    -0x8(%ebp),%esp
    31ea:	5b                   	pop    %ebx
    31eb:	5e                   	pop    %esi
    31ec:	5d                   	pop    %ebp
    31ed:	c3                   	ret    
      exit();
    31ee:	e8 cf 06 00 00       	call   38c2 <exit>
      printf(stdout, "link should not succeed\n");
    31f3:	83 ec 08             	sub    $0x8,%esp
    31f6:	68 f0 4b 00 00       	push   $0x4bf0
    31fb:	ff 35 c8 5d 00 00    	pushl  0x5dc8
    3201:	e8 0a 08 00 00       	call   3a10 <printf>
      exit();
    3206:	e8 b7 06 00 00       	call   38c2 <exit>
    320b:	90                   	nop
    320c:	8d 74 26 00          	lea    0x0(%esi,%eiz,1),%esi

00003210 <bsstest>:
{
    3210:	55                   	push   %ebp
    3211:	89 e5                	mov    %esp,%ebp
    3213:	83 ec 10             	sub    $0x10,%esp
  printf(stdout, "bss test\n");
    3216:	68 16 4c 00 00       	push   $0x4c16
    321b:	ff 35 c8 5d 00 00    	pushl  0x5dc8
    3221:	e8 ea 07 00 00       	call   3a10 <printf>
    if(uninit[i] != '\0'){
    3226:	83 c4 10             	add    $0x10,%esp
    3229:	80 3d 80 5e 00 00 00 	cmpb   $0x0,0x5e80
    3230:	75 39                	jne    326b <bsstest+0x5b>
    3232:	b8 01 00 00 00       	mov    $0x1,%eax
    3237:	89 f6                	mov    %esi,%esi
    3239:	8d bc 27 00 00 00 00 	lea    0x0(%edi,%eiz,1),%edi
    3240:	80 b8 80 5e 00 00 00 	cmpb   $0x0,0x5e80(%eax)
    3247:	75 22                	jne    326b <bsstest+0x5b>
  for(i = 0; i < sizeof(uninit); i++){
    3249:	83 c0 01             	add    $0x1,%eax
    324c:	3d 10 27 00 00       	cmp    $0x2710,%eax
    3251:	75 ed                	jne    3240 <bsstest+0x30>
  printf(stdout, "bss test ok\n");
    3253:	83 ec 08             	sub    $0x8,%esp
    3256:	68 31 4c 00 00       	push   $0x4c31
    325b:	ff 35 c8 5d 00 00    	pushl  0x5dc8
    3261:	e8 aa 07 00 00       	call   3a10 <printf>
}
    3266:	83 c4 10             	add    $0x10,%esp
    3269:	c9                   	leave  
    326a:	c3                   	ret    
      printf(stdout, "bss test failed\n");
    326b:	83 ec 08             	sub    $0x8,%esp
    326e:	68 20 4c 00 00       	push   $0x4c20
    3273:	ff 35 c8 5d 00 00    	pushl  0x5dc8
    3279:	e8 92 07 00 00       	call   3a10 <printf>
      exit();
    327e:	e8 3f 06 00 00       	call   38c2 <exit>
    3283:	8d b6 00 00 00 00    	lea    0x0(%esi),%esi
    3289:	8d bc 27 00 00 00 00 	lea    0x0(%edi,%eiz,1),%edi

00003290 <bigargtest>:
{
    3290:	55                   	push   %ebp
    3291:	89 e5                	mov    %esp,%ebp
    3293:	83 ec 14             	sub    $0x14,%esp
  unlink("bigarg-ok");
    3296:	68 3e 4c 00 00       	push   $0x4c3e
    329b:	e8 72 06 00 00       	call   3912 <unlink>
  pid = fork();
    32a0:	e8 15 06 00 00       	call   38ba <fork>
  if(pid == 0){
    32a5:	83 c4 10             	add    $0x10,%esp
    32a8:	85 c0                	test   %eax,%eax
    32aa:	74 3f                	je     32eb <bigargtest+0x5b>
  } else if(pid < 0){
    32ac:	0f 88 c2 00 00 00    	js     3374 <bigargtest+0xe4>
  wait();
    32b2:	e8 13 06 00 00       	call   38ca <wait>
  fd = open("bigarg-ok", 0);
    32b7:	83 ec 08             	sub    $0x8,%esp
    32ba:	6a 00                	push   $0x0
    32bc:	68 3e 4c 00 00       	push   $0x4c3e
    32c1:	e8 3c 06 00 00       	call   3902 <open>
  if(fd < 0){
    32c6:	83 c4 10             	add    $0x10,%esp
    32c9:	85 c0                	test   %eax,%eax
    32cb:	0f 88 8c 00 00 00    	js     335d <bigargtest+0xcd>
  close(fd);
    32d1:	83 ec 0c             	sub    $0xc,%esp
    32d4:	50                   	push   %eax
    32d5:	e8 10 06 00 00       	call   38ea <close>
  unlink("bigarg-ok");
    32da:	c7 04 24 3e 4c 00 00 	movl   $0x4c3e,(%esp)
    32e1:	e8 2c 06 00 00       	call   3912 <unlink>
}
    32e6:	83 c4 10             	add    $0x10,%esp
    32e9:	c9                   	leave  
    32ea:	c3                   	ret    
    32eb:	b8 e0 5d 00 00       	mov    $0x5de0,%eax
      args[i] = "bigargs test: failed\n                                                                                                                                                                                                       ";
    32f0:	c7 00 98 53 00 00    	movl   $0x5398,(%eax)
    32f6:	83 c0 04             	add    $0x4,%eax
    for(i = 0; i < MAXARG-1; i++)
    32f9:	3d 5c 5e 00 00       	cmp    $0x5e5c,%eax
    32fe:	75 f0                	jne    32f0 <bigargtest+0x60>
    printf(stdout, "bigarg test\n");
    3300:	51                   	push   %ecx
    3301:	51                   	push   %ecx
    3302:	68 48 4c 00 00       	push   $0x4c48
    3307:	ff 35 c8 5d 00 00    	pushl  0x5dc8
    args[MAXARG-1] = 0;
    330d:	c7 05 5c 5e 00 00 00 	movl   $0x0,0x5e5c
    3314:	00 00 00 
    printf(stdout, "bigarg test\n");
    3317:	e8 f4 06 00 00       	call   3a10 <printf>
    exec("echo", args);
    331c:	58                   	pop    %eax
    331d:	5a                   	pop    %edx
    331e:	68 e0 5d 00 00       	push   $0x5de0
    3323:	68 15 3e 00 00       	push   $0x3e15
    3328:	e8 cd 05 00 00       	call   38fa <exec>
    printf(stdout, "bigarg test ok\n");
    332d:	59                   	pop    %ecx
    332e:	58                   	pop    %eax
    332f:	68 55 4c 00 00       	push   $0x4c55
    3334:	ff 35 c8 5d 00 00    	pushl  0x5dc8
    333a:	e8 d1 06 00 00       	call   3a10 <printf>
    fd = open("bigarg-ok", O_CREATE);
    333f:	58                   	pop    %eax
    3340:	5a                   	pop    %edx
    3341:	68 00 02 00 00       	push   $0x200
    3346:	68 3e 4c 00 00       	push   $0x4c3e
    334b:	e8 b2 05 00 00       	call   3902 <open>
    close(fd);
    3350:	89 04 24             	mov    %eax,(%esp)
    3353:	e8 92 05 00 00       	call   38ea <close>
    exit();
    3358:	e8 65 05 00 00       	call   38c2 <exit>
    printf(stdout, "bigarg test failed!\n");
    335d:	50                   	push   %eax
    335e:	50                   	push   %eax
    335f:	68 7e 4c 00 00       	push   $0x4c7e
    3364:	ff 35 c8 5d 00 00    	pushl  0x5dc8
    336a:	e8 a1 06 00 00       	call   3a10 <printf>
    exit();
    336f:	e8 4e 05 00 00       	call   38c2 <exit>
    printf(stdout, "bigargtest: fork failed\n");
    3374:	52                   	push   %edx
    3375:	52                   	push   %edx
    3376:	68 65 4c 00 00       	push   $0x4c65
    337b:	ff 35 c8 5d 00 00    	pushl  0x5dc8
    3381:	e8 8a 06 00 00       	call   3a10 <printf>
    exit();
    3386:	e8 37 05 00 00       	call   38c2 <exit>
    338b:	90                   	nop
    338c:	8d 74 26 00          	lea    0x0(%esi,%eiz,1),%esi

00003390 <fsfull>:
{
    3390:	55                   	push   %ebp
    3391:	89 e5                	mov    %esp,%ebp
    3393:	57                   	push   %edi
    3394:	56                   	push   %esi
    3395:	53                   	push   %ebx
  for(nfiles = 0; ; nfiles++){
    3396:	31 db                	xor    %ebx,%ebx
{
    3398:	83 ec 54             	sub    $0x54,%esp
  printf(1, "fsfull test\n");
    339b:	68 93 4c 00 00       	push   $0x4c93
    33a0:	6a 01                	push   $0x1
    33a2:	e8 69 06 00 00       	call   3a10 <printf>
    33a7:	83 c4 10             	add    $0x10,%esp
    33aa:	8d b6 00 00 00 00    	lea    0x0(%esi),%esi
    name[1] = '0' + nfiles / 1000;
    33b0:	b8 d3 4d 62 10       	mov    $0x10624dd3,%eax
    33b5:	89 de                	mov    %ebx,%esi
    name[2] = '0' + (nfiles % 1000) / 100;
    33b7:	89 d9                	mov    %ebx,%ecx
    name[1] = '0' + nfiles / 1000;
    33b9:	f7 eb                	imul   %ebx
    33bb:	c1 fe 1f             	sar    $0x1f,%esi
    name[3] = '0' + (nfiles % 100) / 10;
    33be:	89 df                	mov    %ebx,%edi
    printf(1, "writing %s\n", name);
    33c0:	83 ec 04             	sub    $0x4,%esp
    name[0] = 'f';
    33c3:	c6 45 a8 66          	movb   $0x66,-0x58(%ebp)
    name[5] = '\0';
    33c7:	c6 45 ad 00          	movb   $0x0,-0x53(%ebp)
    name[1] = '0' + nfiles / 1000;
    33cb:	c1 fa 06             	sar    $0x6,%edx
    33ce:	29 f2                	sub    %esi,%edx
    33d0:	8d 42 30             	lea    0x30(%edx),%eax
    name[2] = '0' + (nfiles % 1000) / 100;
    33d3:	69 d2 e8 03 00 00    	imul   $0x3e8,%edx,%edx
    name[1] = '0' + nfiles / 1000;
    33d9:	88 45 a9             	mov    %al,-0x57(%ebp)
    name[2] = '0' + (nfiles % 1000) / 100;
    33dc:	b8 1f 85 eb 51       	mov    $0x51eb851f,%eax
    33e1:	29 d1                	sub    %edx,%ecx
    33e3:	f7 e9                	imul   %ecx
    33e5:	c1 f9 1f             	sar    $0x1f,%ecx
    name[3] = '0' + (nfiles % 100) / 10;
    33e8:	b8 1f 85 eb 51       	mov    $0x51eb851f,%eax
    name[2] = '0' + (nfiles % 1000) / 100;
    33ed:	c1 fa 05             	sar    $0x5,%edx
    33f0:	29 ca                	sub    %ecx,%edx
    name[3] = '0' + (nfiles % 100) / 10;
    33f2:	b9 67 66 66 66       	mov    $0x66666667,%ecx
    name[2] = '0' + (nfiles % 1000) / 100;
    33f7:	83 c2 30             	add    $0x30,%edx
    33fa:	88 55 aa             	mov    %dl,-0x56(%ebp)
    name[3] = '0' + (nfiles % 100) / 10;
    33fd:	f7 eb                	imul   %ebx
    33ff:	c1 fa 05             	sar    $0x5,%edx
    3402:	29 f2                	sub    %esi,%edx
    3404:	6b d2 64             	imul   $0x64,%edx,%edx
    3407:	29 d7                	sub    %edx,%edi
    3409:	89 f8                	mov    %edi,%eax
    340b:	c1 ff 1f             	sar    $0x1f,%edi
    340e:	f7 e9                	imul   %ecx
    name[4] = '0' + (nfiles % 10);
    3410:	89 d8                	mov    %ebx,%eax
    name[3] = '0' + (nfiles % 100) / 10;
    3412:	c1 fa 02             	sar    $0x2,%edx
    3415:	29 fa                	sub    %edi,%edx
    3417:	83 c2 30             	add    $0x30,%edx
    341a:	88 55 ab             	mov    %dl,-0x55(%ebp)
    name[4] = '0' + (nfiles % 10);
    341d:	f7 e9                	imul   %ecx
    341f:	89 d9                	mov    %ebx,%ecx
    3421:	c1 fa 02             	sar    $0x2,%edx
    3424:	29 f2                	sub    %esi,%edx
    3426:	8d 04 92             	lea    (%edx,%edx,4),%eax
    3429:	01 c0                	add    %eax,%eax
    342b:	29 c1                	sub    %eax,%ecx
    342d:	89 c8                	mov    %ecx,%eax
    342f:	83 c0 30             	add    $0x30,%eax
    3432:	88 45 ac             	mov    %al,-0x54(%ebp)
    printf(1, "writing %s\n", name);
    3435:	8d 45 a8             	lea    -0x58(%ebp),%eax
    3438:	50                   	push   %eax
    3439:	68 a0 4c 00 00       	push   $0x4ca0
    343e:	6a 01                	push   $0x1
    3440:	e8 cb 05 00 00       	call   3a10 <printf>
    int fd = open(name, O_CREATE|O_RDWR);
    3445:	58                   	pop    %eax
    3446:	8d 45 a8             	lea    -0x58(%ebp),%eax
    3449:	5a                   	pop    %edx
    344a:	68 02 02 00 00       	push   $0x202
    344f:	50                   	push   %eax
    3450:	e8 ad 04 00 00       	call   3902 <open>
    if(fd < 0){
    3455:	83 c4 10             	add    $0x10,%esp
    3458:	85 c0                	test   %eax,%eax
    int fd = open(name, O_CREATE|O_RDWR);
    345a:	89 c7                	mov    %eax,%edi
    if(fd < 0){
    345c:	78 50                	js     34ae <fsfull+0x11e>
    345e:	31 f6                	xor    %esi,%esi
    3460:	eb 08                	jmp    346a <fsfull+0xda>
    3462:	8d b6 00 00 00 00    	lea    0x0(%esi),%esi
      total += cc;
    3468:	01 c6                	add    %eax,%esi
      int cc = write(fd, buf, 512);
    346a:	83 ec 04             	sub    $0x4,%esp
    346d:	68 00 02 00 00       	push   $0x200
    3472:	68 a0 85 00 00       	push   $0x85a0
    3477:	57                   	push   %edi
    3478:	e8 65 04 00 00       	call   38e2 <write>
      if(cc < 512)
    347d:	83 c4 10             	add    $0x10,%esp
    3480:	3d ff 01 00 00       	cmp    $0x1ff,%eax
    3485:	7f e1                	jg     3468 <fsfull+0xd8>
    printf(1, "wrote %d bytes\n", total);
    3487:	83 ec 04             	sub    $0x4,%esp
    348a:	56                   	push   %esi
    348b:	68 bc 4c 00 00       	push   $0x4cbc
    3490:	6a 01                	push   $0x1
    3492:	e8 79 05 00 00       	call   3a10 <printf>
    close(fd);
    3497:	89 3c 24             	mov    %edi,(%esp)
    349a:	e8 4b 04 00 00       	call   38ea <close>
    if(total == 0)
    349f:	83 c4 10             	add    $0x10,%esp
    34a2:	85 f6                	test   %esi,%esi
    34a4:	74 22                	je     34c8 <fsfull+0x138>
  for(nfiles = 0; ; nfiles++){
    34a6:	83 c3 01             	add    $0x1,%ebx
    34a9:	e9 02 ff ff ff       	jmp    33b0 <fsfull+0x20>
      printf(1, "open %s failed\n", name);
    34ae:	8d 45 a8             	lea    -0x58(%ebp),%eax
    34b1:	83 ec 04             	sub    $0x4,%esp
    34b4:	50                   	push   %eax
    34b5:	68 ac 4c 00 00       	push   $0x4cac
    34ba:	6a 01                	push   $0x1
    34bc:	e8 4f 05 00 00       	call   3a10 <printf>
      break;
    34c1:	83 c4 10             	add    $0x10,%esp
    34c4:	8d 74 26 00          	lea    0x0(%esi,%eiz,1),%esi
    name[1] = '0' + nfiles / 1000;
    34c8:	b8 d3 4d 62 10       	mov    $0x10624dd3,%eax
    34cd:	89 de                	mov    %ebx,%esi
    name[2] = '0' + (nfiles % 1000) / 100;
    34cf:	89 d9                	mov    %ebx,%ecx
    name[1] = '0' + nfiles / 1000;
    34d1:	f7 eb                	imul   %ebx
    34d3:	c1 fe 1f             	sar    $0x1f,%esi
    name[3] = '0' + (nfiles % 100) / 10;
    34d6:	89 df                	mov    %ebx,%edi
    unlink(name);
    34d8:	83 ec 0c             	sub    $0xc,%esp
    name[0] = 'f';
    34db:	c6 45 a8 66          	movb   $0x66,-0x58(%ebp)
    name[5] = '\0';
    34df:	c6 45 ad 00          	movb   $0x0,-0x53(%ebp)
    name[1] = '0' + nfiles / 1000;
    34e3:	c1 fa 06             	sar    $0x6,%edx
    34e6:	29 f2                	sub    %esi,%edx
    34e8:	8d 42 30             	lea    0x30(%edx),%eax
    name[2] = '0' + (nfiles % 1000) / 100;
    34eb:	69 d2 e8 03 00 00    	imul   $0x3e8,%edx,%edx
    name[1] = '0' + nfiles / 1000;
    34f1:	88 45 a9             	mov    %al,-0x57(%ebp)
    name[2] = '0' + (nfiles % 1000) / 100;
    34f4:	b8 1f 85 eb 51       	mov    $0x51eb851f,%eax
    34f9:	29 d1                	sub    %edx,%ecx
    34fb:	f7 e9                	imul   %ecx
    34fd:	c1 f9 1f             	sar    $0x1f,%ecx
    name[3] = '0' + (nfiles % 100) / 10;
    3500:	b8 1f 85 eb 51       	mov    $0x51eb851f,%eax
    name[2] = '0' + (nfiles % 1000) / 100;
    3505:	c1 fa 05             	sar    $0x5,%edx
    3508:	29 ca                	sub    %ecx,%edx
    name[3] = '0' + (nfiles % 100) / 10;
    350a:	b9 67 66 66 66       	mov    $0x66666667,%ecx
    name[2] = '0' + (nfiles % 1000) / 100;
    350f:	83 c2 30             	add    $0x30,%edx
    3512:	88 55 aa             	mov    %dl,-0x56(%ebp)
    name[3] = '0' + (nfiles % 100) / 10;
    3515:	f7 eb                	imul   %ebx
    3517:	c1 fa 05             	sar    $0x5,%edx
    351a:	29 f2                	sub    %esi,%edx
    351c:	6b d2 64             	imul   $0x64,%edx,%edx
    351f:	29 d7                	sub    %edx,%edi
    3521:	89 f8                	mov    %edi,%eax
    3523:	c1 ff 1f             	sar    $0x1f,%edi
    3526:	f7 e9                	imul   %ecx
    name[4] = '0' + (nfiles % 10);
    3528:	89 d8                	mov    %ebx,%eax
    name[3] = '0' + (nfiles % 100) / 10;
    352a:	c1 fa 02             	sar    $0x2,%edx
    352d:	29 fa                	sub    %edi,%edx
    352f:	83 c2 30             	add    $0x30,%edx
    3532:	88 55 ab             	mov    %dl,-0x55(%ebp)
    name[4] = '0' + (nfiles % 10);
    3535:	f7 e9                	imul   %ecx
    3537:	89 d9                	mov    %ebx,%ecx
    nfiles--;
    3539:	83 eb 01             	sub    $0x1,%ebx
    name[4] = '0' + (nfiles % 10);
    353c:	c1 fa 02             	sar    $0x2,%edx
    353f:	29 f2                	sub    %esi,%edx
    3541:	8d 04 92             	lea    (%edx,%edx,4),%eax
    3544:	01 c0                	add    %eax,%eax
    3546:	29 c1                	sub    %eax,%ecx
    3548:	89 c8                	mov    %ecx,%eax
    354a:	83 c0 30             	add    $0x30,%eax
    354d:	88 45 ac             	mov    %al,-0x54(%ebp)
    unlink(name);
    3550:	8d 45 a8             	lea    -0x58(%ebp),%eax
    3553:	50                   	push   %eax
    3554:	e8 b9 03 00 00       	call   3912 <unlink>
  while(nfiles >= 0){
    3559:	83 c4 10             	add    $0x10,%esp
    355c:	83 fb ff             	cmp    $0xffffffff,%ebx
    355f:	0f 85 63 ff ff ff    	jne    34c8 <fsfull+0x138>
  printf(1, "fsfull test finished\n");
    3565:	83 ec 08             	sub    $0x8,%esp
    3568:	68 cc 4c 00 00       	push   $0x4ccc
    356d:	6a 01                	push   $0x1
    356f:	e8 9c 04 00 00       	call   3a10 <printf>
}
    3574:	83 c4 10             	add    $0x10,%esp
    3577:	8d 65 f4             	lea    -0xc(%ebp),%esp
    357a:	5b                   	pop    %ebx
    357b:	5e                   	pop    %esi
    357c:	5f                   	pop    %edi
    357d:	5d                   	pop    %ebp
    357e:	c3                   	ret    
    357f:	90                   	nop

00003580 <uio>:
{
    3580:	55                   	push   %ebp
    3581:	89 e5                	mov    %esp,%ebp
    3583:	83 ec 10             	sub    $0x10,%esp
  printf(1, "uio test\n");
    3586:	68 e2 4c 00 00       	push   $0x4ce2
    358b:	6a 01                	push   $0x1
    358d:	e8 7e 04 00 00       	call   3a10 <printf>
  pid = fork();
    3592:	e8 23 03 00 00       	call   38ba <fork>
  if(pid == 0){
    3597:	83 c4 10             	add    $0x10,%esp
    359a:	85 c0                	test   %eax,%eax
    359c:	74 1b                	je     35b9 <uio+0x39>
  } else if(pid < 0){
    359e:	78 3d                	js     35dd <uio+0x5d>
  wait();
    35a0:	e8 25 03 00 00       	call   38ca <wait>
  printf(1, "uio test done\n");
    35a5:	83 ec 08             	sub    $0x8,%esp
    35a8:	68 ec 4c 00 00       	push   $0x4cec
    35ad:	6a 01                	push   $0x1
    35af:	e8 5c 04 00 00       	call   3a10 <printf>
}
    35b4:	83 c4 10             	add    $0x10,%esp
    35b7:	c9                   	leave  
    35b8:	c3                   	ret    
    asm volatile("outb %0,%1"::"a"(val), "d" (port));
    35b9:	ba 70 00 00 00       	mov    $0x70,%edx
    35be:	b8 09 00 00 00       	mov    $0x9,%eax
    35c3:	ee                   	out    %al,(%dx)
    asm volatile("inb %1,%0" : "=a" (val) : "d" (port));
    35c4:	ba 71 00 00 00       	mov    $0x71,%edx
    35c9:	ec                   	in     (%dx),%al
    printf(1, "uio: uio succeeded; test FAILED\n");
    35ca:	52                   	push   %edx
    35cb:	52                   	push   %edx
    35cc:	68 78 54 00 00       	push   $0x5478
    35d1:	6a 01                	push   $0x1
    35d3:	e8 38 04 00 00       	call   3a10 <printf>
    exit();
    35d8:	e8 e5 02 00 00       	call   38c2 <exit>
    printf (1, "fork failed\n");
    35dd:	50                   	push   %eax
    35de:	50                   	push   %eax
    35df:	68 71 4c 00 00       	push   $0x4c71
    35e4:	6a 01                	push   $0x1
    35e6:	e8 25 04 00 00       	call   3a10 <printf>
    exit();
    35eb:	e8 d2 02 00 00       	call   38c2 <exit>

000035f0 <argptest>:
{
    35f0:	55                   	push   %ebp
    35f1:	89 e5                	mov    %esp,%ebp
    35f3:	53                   	push   %ebx
    35f4:	83 ec 0c             	sub    $0xc,%esp
  fd = open("init", O_RDONLY);
    35f7:	6a 00                	push   $0x0
    35f9:	68 fb 4c 00 00       	push   $0x4cfb
    35fe:	e8 ff 02 00 00       	call   3902 <open>
  if (fd < 0) {
    3603:	83 c4 10             	add    $0x10,%esp
    3606:	85 c0                	test   %eax,%eax
    3608:	78 39                	js     3643 <argptest+0x53>
  read(fd, sbrk(0) - 1, -1);
    360a:	83 ec 0c             	sub    $0xc,%esp
    360d:	89 c3                	mov    %eax,%ebx
    360f:	6a 00                	push   $0x0
    3611:	e8 34 03 00 00       	call   394a <sbrk>
    3616:	83 c4 0c             	add    $0xc,%esp
    3619:	83 e8 01             	sub    $0x1,%eax
    361c:	6a ff                	push   $0xffffffff
    361e:	50                   	push   %eax
    361f:	53                   	push   %ebx
    3620:	e8 b5 02 00 00       	call   38da <read>
  close(fd);
    3625:	89 1c 24             	mov    %ebx,(%esp)
    3628:	e8 bd 02 00 00       	call   38ea <close>
  printf(1, "arg test passed\n");
    362d:	58                   	pop    %eax
    362e:	5a                   	pop    %edx
    362f:	68 0d 4d 00 00       	push   $0x4d0d
    3634:	6a 01                	push   $0x1
    3636:	e8 d5 03 00 00       	call   3a10 <printf>
}
    363b:	83 c4 10             	add    $0x10,%esp
    363e:	8b 5d fc             	mov    -0x4(%ebp),%ebx
    3641:	c9                   	leave  
    3642:	c3                   	ret    
    printf(2, "open failed\n");
    3643:	51                   	push   %ecx
    3644:	51                   	push   %ecx
    3645:	68 00 4d 00 00       	push   $0x4d00
    364a:	6a 02                	push   $0x2
    364c:	e8 bf 03 00 00       	call   3a10 <printf>
    exit();
    3651:	e8 6c 02 00 00       	call   38c2 <exit>
    3656:	8d 76 00             	lea    0x0(%esi),%esi
    3659:	8d bc 27 00 00 00 00 	lea    0x0(%edi,%eiz,1),%edi

00003660 <rand>:
  randstate = randstate * 1664525 + 1013904223;
    3660:	69 05 c4 5d 00 00 0d 	imul   $0x19660d,0x5dc4,%eax
    3667:	66 19 00 
{
    366a:	55                   	push   %ebp
    366b:	89 e5                	mov    %esp,%ebp
}
    366d:	5d                   	pop    %ebp
  randstate = randstate * 1664525 + 1013904223;
    366e:	05 5f f3 6e 3c       	add    $0x3c6ef35f,%eax
    3673:	a3 c4 5d 00 00       	mov    %eax,0x5dc4
}
    3678:	c3                   	ret    
    3679:	66 90                	xchg   %ax,%ax
    367b:	66 90                	xchg   %ax,%ax
    367d:	66 90                	xchg   %ax,%ax
    367f:	90                   	nop

00003680 <strcpy>:
#include "user.h"
#include "x86.h"

char*
strcpy(char *s, const char *t)
{
    3680:	55                   	push   %ebp
    3681:	89 e5                	mov    %esp,%ebp
    3683:	53                   	push   %ebx
    3684:	8b 45 08             	mov    0x8(%ebp),%eax
    3687:	8b 4d 0c             	mov    0xc(%ebp),%ecx
  char *os;

  os = s;
  while((*s++ = *t++) != 0)
    368a:	89 c2                	mov    %eax,%edx
    368c:	8d 74 26 00          	lea    0x0(%esi,%eiz,1),%esi
    3690:	83 c1 01             	add    $0x1,%ecx
    3693:	0f b6 59 ff          	movzbl -0x1(%ecx),%ebx
    3697:	83 c2 01             	add    $0x1,%edx
    369a:	84 db                	test   %bl,%bl
    369c:	88 5a ff             	mov    %bl,-0x1(%edx)
    369f:	75 ef                	jne    3690 <strcpy+0x10>
    ;
  return os;
}
    36a1:	5b                   	pop    %ebx
    36a2:	5d                   	pop    %ebp
    36a3:	c3                   	ret    
    36a4:	8d b6 00 00 00 00    	lea    0x0(%esi),%esi
    36aa:	8d bf 00 00 00 00    	lea    0x0(%edi),%edi

000036b0 <strcmp>:

int
strcmp(const char *p, const char *q)
{
    36b0:	55                   	push   %ebp
    36b1:	89 e5                	mov    %esp,%ebp
    36b3:	56                   	push   %esi
    36b4:	53                   	push   %ebx
    36b5:	8b 55 08             	mov    0x8(%ebp),%edx
    36b8:	8b 4d 0c             	mov    0xc(%ebp),%ecx
  while(*p && *p == *q)
    36bb:	0f b6 02             	movzbl (%edx),%eax
    36be:	0f b6 19             	movzbl (%ecx),%ebx
    36c1:	84 c0                	test   %al,%al
    36c3:	75 1e                	jne    36e3 <strcmp+0x33>
    36c5:	eb 29                	jmp    36f0 <strcmp+0x40>
    36c7:	89 f6                	mov    %esi,%esi
    36c9:	8d bc 27 00 00 00 00 	lea    0x0(%edi,%eiz,1),%edi
    p++, q++;
    36d0:	83 c2 01             	add    $0x1,%edx
  while(*p && *p == *q)
    36d3:	0f b6 02             	movzbl (%edx),%eax
    p++, q++;
    36d6:	8d 71 01             	lea    0x1(%ecx),%esi
  while(*p && *p == *q)
    36d9:	0f b6 59 01          	movzbl 0x1(%ecx),%ebx
    36dd:	84 c0                	test   %al,%al
    36df:	74 0f                	je     36f0 <strcmp+0x40>
    36e1:	89 f1                	mov    %esi,%ecx
    36e3:	38 d8                	cmp    %bl,%al
    36e5:	74 e9                	je     36d0 <strcmp+0x20>
  return (uchar)*p - (uchar)*q;
    36e7:	29 d8                	sub    %ebx,%eax
}
    36e9:	5b                   	pop    %ebx
    36ea:	5e                   	pop    %esi
    36eb:	5d                   	pop    %ebp
    36ec:	c3                   	ret    
    36ed:	8d 76 00             	lea    0x0(%esi),%esi
  while(*p && *p == *q)
    36f0:	31 c0                	xor    %eax,%eax
  return (uchar)*p - (uchar)*q;
    36f2:	29 d8                	sub    %ebx,%eax
}
    36f4:	5b                   	pop    %ebx
    36f5:	5e                   	pop    %esi
    36f6:	5d                   	pop    %ebp
    36f7:	c3                   	ret    
    36f8:	90                   	nop
    36f9:	8d b4 26 00 00 00 00 	lea    0x0(%esi,%eiz,1),%esi

00003700 <strlen>:

uint
strlen(const char *s)
{
    3700:	55                   	push   %ebp
    3701:	89 e5                	mov    %esp,%ebp
    3703:	8b 4d 08             	mov    0x8(%ebp),%ecx
  int n;

  for(n = 0; s[n]; n++)
    3706:	80 39 00             	cmpb   $0x0,(%ecx)
    3709:	74 12                	je     371d <strlen+0x1d>
    370b:	31 d2                	xor    %edx,%edx
    370d:	8d 76 00             	lea    0x0(%esi),%esi
    3710:	83 c2 01             	add    $0x1,%edx
    3713:	80 3c 11 00          	cmpb   $0x0,(%ecx,%edx,1)
    3717:	89 d0                	mov    %edx,%eax
    3719:	75 f5                	jne    3710 <strlen+0x10>
    ;
  return n;
}
    371b:	5d                   	pop    %ebp
    371c:	c3                   	ret    
  for(n = 0; s[n]; n++)
    371d:	31 c0                	xor    %eax,%eax
}
    371f:	5d                   	pop    %ebp
    3720:	c3                   	ret    
    3721:	eb 0d                	jmp    3730 <memset>
    3723:	90                   	nop
    3724:	90                   	nop
    3725:	90                   	nop
    3726:	90                   	nop
    3727:	90                   	nop
    3728:	90                   	nop
    3729:	90                   	nop
    372a:	90                   	nop
    372b:	90                   	nop
    372c:	90                   	nop
    372d:	90                   	nop
    372e:	90                   	nop
    372f:	90                   	nop

00003730 <memset>:

void*
memset(void *dst, int c, uint n)
{
    3730:	55                   	push   %ebp
    3731:	89 e5                	mov    %esp,%ebp
    3733:	57                   	push   %edi
    3734:	8b 55 08             	mov    0x8(%ebp),%edx
}

static inline void
stosb(void *addr, int data, int cnt)
{
  asm volatile("cld; rep stosb" :
    3737:	8b 4d 10             	mov    0x10(%ebp),%ecx
    373a:	8b 45 0c             	mov    0xc(%ebp),%eax
    373d:	89 d7                	mov    %edx,%edi
    373f:	fc                   	cld    
    3740:	f3 aa                	rep stos %al,%es:(%edi)
  stosb(dst, c, n);
  return dst;
}
    3742:	89 d0                	mov    %edx,%eax
    3744:	5f                   	pop    %edi
    3745:	5d                   	pop    %ebp
    3746:	c3                   	ret    
    3747:	89 f6                	mov    %esi,%esi
    3749:	8d bc 27 00 00 00 00 	lea    0x0(%edi,%eiz,1),%edi

00003750 <strchr>:

char*
strchr(const char *s, char c)
{
    3750:	55                   	push   %ebp
    3751:	89 e5                	mov    %esp,%ebp
    3753:	53                   	push   %ebx
    3754:	8b 45 08             	mov    0x8(%ebp),%eax
    3757:	8b 5d 0c             	mov    0xc(%ebp),%ebx
  for(; *s; s++)
    375a:	0f b6 10             	movzbl (%eax),%edx
    375d:	84 d2                	test   %dl,%dl
    375f:	74 1d                	je     377e <strchr+0x2e>
    if(*s == c)
    3761:	38 d3                	cmp    %dl,%bl
    3763:	89 d9                	mov    %ebx,%ecx
    3765:	75 0d                	jne    3774 <strchr+0x24>
    3767:	eb 17                	jmp    3780 <strchr+0x30>
    3769:	8d b4 26 00 00 00 00 	lea    0x0(%esi,%eiz,1),%esi
    3770:	38 ca                	cmp    %cl,%dl
    3772:	74 0c                	je     3780 <strchr+0x30>
  for(; *s; s++)
    3774:	83 c0 01             	add    $0x1,%eax
    3777:	0f b6 10             	movzbl (%eax),%edx
    377a:	84 d2                	test   %dl,%dl
    377c:	75 f2                	jne    3770 <strchr+0x20>
      return (char*)s;
  return 0;
    377e:	31 c0                	xor    %eax,%eax
}
    3780:	5b                   	pop    %ebx
    3781:	5d                   	pop    %ebp
    3782:	c3                   	ret    
    3783:	8d b6 00 00 00 00    	lea    0x0(%esi),%esi
    3789:	8d bc 27 00 00 00 00 	lea    0x0(%edi,%eiz,1),%edi

00003790 <gets>:

char*
gets(char *buf, int max)
{
    3790:	55                   	push   %ebp
    3791:	89 e5                	mov    %esp,%ebp
    3793:	57                   	push   %edi
    3794:	56                   	push   %esi
    3795:	53                   	push   %ebx
  int i, cc;
  char c;

  for(i=0; i+1 < max; ){
    3796:	31 f6                	xor    %esi,%esi
    cc = read(0, &c, 1);
    3798:	8d 7d e7             	lea    -0x19(%ebp),%edi
{
    379b:	83 ec 1c             	sub    $0x1c,%esp
  for(i=0; i+1 < max; ){
    379e:	eb 29                	jmp    37c9 <gets+0x39>
    cc = read(0, &c, 1);
    37a0:	83 ec 04             	sub    $0x4,%esp
    37a3:	6a 01                	push   $0x1
    37a5:	57                   	push   %edi
    37a6:	6a 00                	push   $0x0
    37a8:	e8 2d 01 00 00       	call   38da <read>
    if(cc < 1)
    37ad:	83 c4 10             	add    $0x10,%esp
    37b0:	85 c0                	test   %eax,%eax
    37b2:	7e 1d                	jle    37d1 <gets+0x41>
      break;
    buf[i++] = c;
    37b4:	0f b6 45 e7          	movzbl -0x19(%ebp),%eax
    37b8:	8b 55 08             	mov    0x8(%ebp),%edx
    37bb:	89 de                	mov    %ebx,%esi
    if(c == '\n' || c == '\r')
    37bd:	3c 0a                	cmp    $0xa,%al
    buf[i++] = c;
    37bf:	88 44 1a ff          	mov    %al,-0x1(%edx,%ebx,1)
    if(c == '\n' || c == '\r')
    37c3:	74 1b                	je     37e0 <gets+0x50>
    37c5:	3c 0d                	cmp    $0xd,%al
    37c7:	74 17                	je     37e0 <gets+0x50>
  for(i=0; i+1 < max; ){
    37c9:	8d 5e 01             	lea    0x1(%esi),%ebx
    37cc:	3b 5d 0c             	cmp    0xc(%ebp),%ebx
    37cf:	7c cf                	jl     37a0 <gets+0x10>
      break;
  }
  buf[i] = '\0';
    37d1:	8b 45 08             	mov    0x8(%ebp),%eax
    37d4:	c6 04 30 00          	movb   $0x0,(%eax,%esi,1)
  return buf;
}
    37d8:	8d 65 f4             	lea    -0xc(%ebp),%esp
    37db:	5b                   	pop    %ebx
    37dc:	5e                   	pop    %esi
    37dd:	5f                   	pop    %edi
    37de:	5d                   	pop    %ebp
    37df:	c3                   	ret    
  buf[i] = '\0';
    37e0:	8b 45 08             	mov    0x8(%ebp),%eax
  for(i=0; i+1 < max; ){
    37e3:	89 de                	mov    %ebx,%esi
  buf[i] = '\0';
    37e5:	c6 04 30 00          	movb   $0x0,(%eax,%esi,1)
}
    37e9:	8d 65 f4             	lea    -0xc(%ebp),%esp
    37ec:	5b                   	pop    %ebx
    37ed:	5e                   	pop    %esi
    37ee:	5f                   	pop    %edi
    37ef:	5d                   	pop    %ebp
    37f0:	c3                   	ret    
    37f1:	eb 0d                	jmp    3800 <stat>
    37f3:	90                   	nop
    37f4:	90                   	nop
    37f5:	90                   	nop
    37f6:	90                   	nop
    37f7:	90                   	nop
    37f8:	90                   	nop
    37f9:	90                   	nop
    37fa:	90                   	nop
    37fb:	90                   	nop
    37fc:	90                   	nop
    37fd:	90                   	nop
    37fe:	90                   	nop
    37ff:	90                   	nop

00003800 <stat>:

int
stat(const char *n, struct stat *st)
{
    3800:	55                   	push   %ebp
    3801:	89 e5                	mov    %esp,%ebp
    3803:	56                   	push   %esi
    3804:	53                   	push   %ebx
  int fd;
  int r;

  fd = open(n, O_RDONLY);
    3805:	83 ec 08             	sub    $0x8,%esp
    3808:	6a 00                	push   $0x0
    380a:	ff 75 08             	pushl  0x8(%ebp)
    380d:	e8 f0 00 00 00       	call   3902 <open>
  if(fd < 0)
    3812:	83 c4 10             	add    $0x10,%esp
    3815:	85 c0                	test   %eax,%eax
    3817:	78 27                	js     3840 <stat+0x40>
    return -1;
  r = fstat(fd, st);
    3819:	83 ec 08             	sub    $0x8,%esp
    381c:	ff 75 0c             	pushl  0xc(%ebp)
    381f:	89 c3                	mov    %eax,%ebx
    3821:	50                   	push   %eax
    3822:	e8 f3 00 00 00       	call   391a <fstat>
  close(fd);
    3827:	89 1c 24             	mov    %ebx,(%esp)
  r = fstat(fd, st);
    382a:	89 c6                	mov    %eax,%esi
  close(fd);
    382c:	e8 b9 00 00 00       	call   38ea <close>
  return r;
    3831:	83 c4 10             	add    $0x10,%esp
}
    3834:	8d 65 f8             	lea    -0x8(%ebp),%esp
    3837:	89 f0                	mov    %esi,%eax
    3839:	5b                   	pop    %ebx
    383a:	5e                   	pop    %esi
    383b:	5d                   	pop    %ebp
    383c:	c3                   	ret    
    383d:	8d 76 00             	lea    0x0(%esi),%esi
    return -1;
    3840:	be ff ff ff ff       	mov    $0xffffffff,%esi
    3845:	eb ed                	jmp    3834 <stat+0x34>
    3847:	89 f6                	mov    %esi,%esi
    3849:	8d bc 27 00 00 00 00 	lea    0x0(%edi,%eiz,1),%edi

00003850 <atoi>:

int
atoi(const char *s)
{
    3850:	55                   	push   %ebp
    3851:	89 e5                	mov    %esp,%ebp
    3853:	53                   	push   %ebx
    3854:	8b 4d 08             	mov    0x8(%ebp),%ecx
  int n;

  n = 0;
  while('0' <= *s && *s <= '9')
    3857:	0f be 11             	movsbl (%ecx),%edx
    385a:	8d 42 d0             	lea    -0x30(%edx),%eax
    385d:	3c 09                	cmp    $0x9,%al
    385f:	b8 00 00 00 00       	mov    $0x0,%eax
    3864:	77 1f                	ja     3885 <atoi+0x35>
    3866:	8d 76 00             	lea    0x0(%esi),%esi
    3869:	8d bc 27 00 00 00 00 	lea    0x0(%edi,%eiz,1),%edi
    n = n*10 + *s++ - '0';
    3870:	8d 04 80             	lea    (%eax,%eax,4),%eax
    3873:	83 c1 01             	add    $0x1,%ecx
    3876:	8d 44 42 d0          	lea    -0x30(%edx,%eax,2),%eax
  while('0' <= *s && *s <= '9')
    387a:	0f be 11             	movsbl (%ecx),%edx
    387d:	8d 5a d0             	lea    -0x30(%edx),%ebx
    3880:	80 fb 09             	cmp    $0x9,%bl
    3883:	76 eb                	jbe    3870 <atoi+0x20>
  return n;
}
    3885:	5b                   	pop    %ebx
    3886:	5d                   	pop    %ebp
    3887:	c3                   	ret    
